TN:
SF:/Library/Developer/CommandLineTools/usr/include/c++/v1/__locale
FN:232,_ZNSt3__1L9use_facetINS_5ctypeIcEEEERKT_RKNS_6localeE
FN:647,_ZNKSt3__15ctypeIcE5widenEc
FNDA:37,_ZNSt3__1L9use_facetINS_5ctypeIcEEEERKT_RKNS_6localeE
FNDA:37,_ZNKSt3__15ctypeIcE5widenEc
FNF:2
FNH:2
DA:232,37
DA:234,37
DA:647,37
DA:649,37
LF:4
LH:4
end_of_record
SF:/Library/Developer/CommandLineTools/usr/include/c++/v1/__split_buffer
FN:56,_ZNSt3__114__split_bufferIPN8automate5StateERNS_9allocatorIS3_EEE7__allocEv
FN:56,_ZNSt3__114__split_bufferIPN8automate5StateENS_9allocatorIS3_EEE7__allocEv
FN:58,_ZNSt3__114__split_bufferIPN8automate5StateERNS_9allocatorIS3_EEE9__end_capEv
FN:58,_ZNSt3__114__split_bufferIPN8automate5StateENS_9allocatorIS3_EEE9__end_capEv
FN:59,_ZNKSt3__114__split_bufferIPN8automate5StateENS_9allocatorIS3_EEE9__end_capEv
FN:59,_ZNKSt3__114__split_bufferIPN8automate5StateERNS_9allocatorIS3_EEE9__end_capEv
FN:81,_ZNSt3__114__split_bufferIPN8automate5StateENS_9allocatorIS3_EEE5beginEv
FN:83,_ZNSt3__114__split_bufferIPN8automate5StateENS_9allocatorIS3_EEE3endEv
FN:87,_ZNSt3__114__split_bufferIPN8automate5StateENS_9allocatorIS3_EEE5clearEv
FN:87,_ZNSt3__114__split_bufferIPN8automate5StateERNS_9allocatorIS3_EEE5clearEv
FN:89,_ZNKSt3__114__split_bufferIPN8automate5StateENS_9allocatorIS3_EEE4sizeEv
FN:90,_ZNKSt3__114__split_bufferIPN8automate5StateENS_9allocatorIS3_EEE5emptyEv
FN:91,_ZNKSt3__114__split_bufferIPN8automate5StateENS_9allocatorIS3_EEE8capacityEv
FN:91,_ZNKSt3__114__split_bufferIPN8automate5StateERNS_9allocatorIS3_EEE8capacityEv
FN:93,_ZNKSt3__114__split_bufferIPN8automate5StateENS_9allocatorIS3_EEE12__back_spareEv
FN:95,_ZNSt3__114__split_bufferIPN8automate5StateENS_9allocatorIS3_EEE5frontEv
FN:97,_ZNSt3__114__split_bufferIPN8automate5StateENS_9allocatorIS3_EEE4backEv
FN:111,_ZNSt3__114__split_bufferIPN8automate5StateENS_9allocatorIS3_EEE9pop_frontEv
FN:112,_ZNSt3__114__split_bufferIPN8automate5StateENS_9allocatorIS3_EEE8pop_backEv
FN:132,_ZNSt3__114__split_bufferIPN8automate5StateENS_9allocatorIS3_EEE19__destruct_at_beginEPS3_
FN:140,_ZNSt3__114__split_bufferIPN8automate5StateENS_9allocatorIS3_EEE17__destruct_at_endEPS3_
FN:140,_ZNSt3__114__split_bufferIPN8automate5StateERNS_9allocatorIS3_EEE17__destruct_at_endEPS3_
FN:263,_ZNSt3__114__split_bufferIPN8automate5StateERNS_9allocatorIS3_EEE18__construct_at_endINS_13move_iteratorIPS3_EEEENS_9enable_ifIXsr21__is_forward_iteratorIT_EE5valueEvE4typeESD_SD_
FN:285,_ZNSt3__114__split_bufferIPN8automate5StateENS_9allocatorIS3_EEE19__destruct_at_beginEPS3_NS_17integral_constantIbLb1EEE
FN:293,_ZNSt3__114__split_bufferIPN8automate5StateENS_9allocatorIS3_EEE17__destruct_at_endEPS3_NS_17integral_constantIbLb0EEE
FN:293,_ZNSt3__114__split_bufferIPN8automate5StateERNS_9allocatorIS3_EEE17__destruct_at_endEPS3_NS_17integral_constantIbLb0EEE
FN:308,_ZNSt3__114__split_bufferIPN8automate5StateERNS_9allocatorIS3_EEEC1EmmS6_
FN:308,_ZNSt3__114__split_bufferIPN8automate5StateERNS_9allocatorIS3_EEEC2EmmS6_
FN:318,_ZNSt3__114__split_bufferIPN8automate5StateENS_9allocatorIS3_EEEC2Ev
FN:318,_ZNSt3__114__split_bufferIPN8automate5StateENS_9allocatorIS3_EEEC1Ev
FN:339,_ZNSt3__114__split_bufferIPN8automate5StateENS_9allocatorIS3_EEED1Ev
FN:339,_ZNSt3__114__split_bufferIPN8automate5StateERNS_9allocatorIS3_EEED2Ev
FN:339,_ZNSt3__114__split_bufferIPN8automate5StateERNS_9allocatorIS3_EEED1Ev
FN:339,_ZNSt3__114__split_bufferIPN8automate5StateENS_9allocatorIS3_EEED2Ev
FN:468,_ZNSt3__114__split_bufferIPN8automate5StateERNS_9allocatorIS3_EEE10push_frontERKS3_
FN:499,_ZNSt3__114__split_bufferIPN8automate5StateENS_9allocatorIS3_EEE10push_frontEOS3_
FN:532,_ZNSt3__114__split_bufferIPN8automate5StateENS_9allocatorIS3_EEE9push_backERKS3_
FN:563,_ZNSt3__114__split_bufferIPN8automate5StateENS_9allocatorIS3_EEE9push_backEOS3_
FN:563,_ZNSt3__114__split_bufferIPN8automate5StateERNS_9allocatorIS3_EEE9push_backEOS3_
FNDA:9,_ZNSt3__114__split_bufferIPN8automate5StateENS_9allocatorIS3_EEE7__allocEv
FNDA:6,_ZNSt3__114__split_bufferIPN8automate5StateERNS_9allocatorIS3_EEE7__allocEv
FNDA:3,_ZNSt3__114__split_bufferIPN8automate5StateENS_9allocatorIS3_EEE9__end_capEv
FNDA:9,_ZNSt3__114__split_bufferIPN8automate5StateERNS_9allocatorIS3_EEE9__end_capEv
FNDA:9,_ZNKSt3__114__split_bufferIPN8automate5StateENS_9allocatorIS3_EEE9__end_capEv
FNDA:0,_ZNKSt3__114__split_bufferIPN8automate5StateERNS_9allocatorIS3_EEE9__end_capEv
FNDA:159,_ZNSt3__114__split_bufferIPN8automate5StateENS_9allocatorIS3_EEE5beginEv
FNDA:9,_ZNSt3__114__split_bufferIPN8automate5StateENS_9allocatorIS3_EEE3endEv
FNDA:6,_ZNSt3__114__split_bufferIPN8automate5StateENS_9allocatorIS3_EEE5clearEv
FNDA:3,_ZNSt3__114__split_bufferIPN8automate5StateERNS_9allocatorIS3_EEE5clearEv
FNDA:199,_ZNKSt3__114__split_bufferIPN8automate5StateENS_9allocatorIS3_EEE4sizeEv
FNDA:60,_ZNKSt3__114__split_bufferIPN8automate5StateENS_9allocatorIS3_EEE5emptyEv
FNDA:9,_ZNKSt3__114__split_bufferIPN8automate5StateENS_9allocatorIS3_EEE8capacityEv
FNDA:0,_ZNKSt3__114__split_bufferIPN8automate5StateERNS_9allocatorIS3_EEE8capacityEv
FNDA:0,_ZNKSt3__114__split_bufferIPN8automate5StateENS_9allocatorIS3_EEE12__back_spareEv
FNDA:0,_ZNSt3__114__split_bufferIPN8automate5StateENS_9allocatorIS3_EEE5frontEv
FNDA:0,_ZNSt3__114__split_bufferIPN8automate5StateENS_9allocatorIS3_EEE4backEv
FNDA:0,_ZNSt3__114__split_bufferIPN8automate5StateENS_9allocatorIS3_EEE9pop_frontEv
FNDA:0,_ZNSt3__114__split_bufferIPN8automate5StateENS_9allocatorIS3_EEE8pop_backEv
FNDA:0,_ZNSt3__114__split_bufferIPN8automate5StateENS_9allocatorIS3_EEE19__destruct_at_beginEPS3_
FNDA:6,_ZNSt3__114__split_bufferIPN8automate5StateENS_9allocatorIS3_EEE17__destruct_at_endEPS3_
FNDA:3,_ZNSt3__114__split_bufferIPN8automate5StateERNS_9allocatorIS3_EEE17__destruct_at_endEPS3_
FNDA:0,_ZNSt3__114__split_bufferIPN8automate5StateERNS_9allocatorIS3_EEE18__construct_at_endINS_13move_iteratorIPS3_EEEENS_9enable_ifIXsr21__is_forward_iteratorIT_EE5valueEvE4typeESD_SD_
FNDA:0,_ZNSt3__114__split_bufferIPN8automate5StateENS_9allocatorIS3_EEE19__destruct_at_beginEPS3_NS_17integral_constantIbLb1EEE
FNDA:6,_ZNSt3__114__split_bufferIPN8automate5StateENS_9allocatorIS3_EEE17__destruct_at_endEPS3_NS_17integral_constantIbLb0EEE
FNDA:3,_ZNSt3__114__split_bufferIPN8automate5StateERNS_9allocatorIS3_EEE17__destruct_at_endEPS3_NS_17integral_constantIbLb0EEE
FNDA:3,_ZNSt3__114__split_bufferIPN8automate5StateERNS_9allocatorIS3_EEEC1EmmS6_
FNDA:3,_ZNSt3__114__split_bufferIPN8automate5StateERNS_9allocatorIS3_EEEC2EmmS6_
FNDA:6,_ZNSt3__114__split_bufferIPN8automate5StateENS_9allocatorIS3_EEEC1Ev
FNDA:6,_ZNSt3__114__split_bufferIPN8automate5StateENS_9allocatorIS3_EEEC2Ev
FNDA:6,_ZNSt3__114__split_bufferIPN8automate5StateENS_9allocatorIS3_EEED1Ev
FNDA:6,_ZNSt3__114__split_bufferIPN8automate5StateENS_9allocatorIS3_EEED2Ev
FNDA:3,_ZNSt3__114__split_bufferIPN8automate5StateERNS_9allocatorIS3_EEED1Ev
FNDA:3,_ZNSt3__114__split_bufferIPN8automate5StateERNS_9allocatorIS3_EEED2Ev
FNDA:0,_ZNSt3__114__split_bufferIPN8automate5StateERNS_9allocatorIS3_EEE10push_frontERKS3_
FNDA:0,_ZNSt3__114__split_bufferIPN8automate5StateENS_9allocatorIS3_EEE10push_frontEOS3_
FNDA:0,_ZNSt3__114__split_bufferIPN8automate5StateENS_9allocatorIS3_EEE9push_backERKS3_
FNDA:0,_ZNSt3__114__split_bufferIPN8automate5StateENS_9allocatorIS3_EEE9push_backEOS3_
FNDA:3,_ZNSt3__114__split_bufferIPN8automate5StateERNS_9allocatorIS3_EEE9push_backEOS3_
FNF:39
FNH:25
BRDA:266,1,0,-
BRDA:266,1,1,-
BRDA:295,1,0,3
BRDA:295,1,1,6
BRDA:295,4,2,0
BRDA:295,4,3,3
BRDA:296,0,0,3
BRDA:296,0,1,0
BRDA:296,2,2,-
BRDA:296,2,3,-
BRDA:311,0,0,3
BRDA:311,0,1,0
BRDA:320,0,0,6
BRDA:320,0,1,0
BRDA:342,0,0,3
BRDA:342,0,1,3
BRDA:342,1,2,0
BRDA:342,1,3,3
BRDA:343,0,0,3
BRDA:343,0,1,0
BRDA:343,3,2,-
BRDA:343,3,3,-
BRDA:470,0,0,-
BRDA:470,0,1,-
BRDA:472,0,0,-
BRDA:472,0,1,-
BRDA:483,0,0,-
BRDA:483,0,1,-
BRDA:483,1,2,-
BRDA:483,1,3,-
BRDA:484,0,0,-
BRDA:484,0,1,-
BRDA:501,0,0,-
BRDA:501,0,1,-
BRDA:503,0,0,-
BRDA:503,0,1,-
BRDA:514,0,0,-
BRDA:514,0,1,-
BRDA:514,1,2,-
BRDA:514,1,3,-
BRDA:515,0,0,-
BRDA:515,0,1,-
BRDA:534,0,0,-
BRDA:534,0,1,-
BRDA:536,0,0,-
BRDA:536,0,1,-
BRDA:547,0,0,-
BRDA:547,0,1,-
BRDA:547,1,2,-
BRDA:547,1,3,-
BRDA:548,0,0,-
BRDA:548,0,1,-
BRDA:565,0,0,-
BRDA:565,0,1,-
BRDA:565,1,2,0
BRDA:565,1,3,3
BRDA:567,0,0,-
BRDA:567,0,1,-
BRDA:567,1,2,-
BRDA:567,1,3,-
BRDA:578,0,0,-
BRDA:578,0,1,-
BRDA:578,1,2,-
BRDA:578,1,3,-
BRDA:578,2,4,-
BRDA:578,2,5,-
BRDA:578,3,6,-
BRDA:578,3,7,-
BRDA:579,0,0,-
BRDA:579,0,1,-
BRDA:579,1,2,-
BRDA:579,1,3,-
BRF:72
BRH:11
DA:56,15
DA:58,12
DA:59,9
DA:81,159
DA:83,9
DA:87,9
DA:88,9
DA:89,199
DA:90,60
DA:91,9
DA:93,0
DA:95,0
DA:97,0
DA:111,0
DA:112,0
DA:132,0
DA:133,0
DA:140,9
DA:141,9
DA:263,0
DA:265,0
DA:266,0
DA:268,0
DA:269,0
DA:270,0
DA:271,0
DA:285,0
DA:287,0
DA:288,0
DA:293,9
DA:295,12
DA:296,3
DA:297,9
DA:308,6
DA:309,3
DA:310,6
DA:311,3
DA:312,3
DA:313,3
DA:314,6
DA:318,12
DA:320,6
DA:321,12
DA:322,12
DA:339,18
DA:340,9
DA:341,9
DA:342,9
DA:343,3
DA:344,18
DA:468,0
DA:470,0
DA:472,0
DA:474,0
DA:475,0
DA:476,0
DA:477,0
DA:478,0
DA:481,0
DA:482,0
DA:483,0
DA:484,0
DA:485,0
DA:486,0
DA:487,0
DA:488,0
DA:489,0
DA:490,0
DA:491,0
DA:492,0
DA:493,0
DA:499,0
DA:501,0
DA:503,0
DA:505,0
DA:506,0
DA:507,0
DA:508,0
DA:509,0
DA:512,0
DA:513,0
DA:514,0
DA:515,0
DA:516,0
DA:517,0
DA:518,0
DA:519,0
DA:520,0
DA:521,0
DA:522,0
DA:523,0
DA:524,0
DA:525,0
DA:532,0
DA:534,0
DA:536,0
DA:538,0
DA:539,0
DA:540,0
DA:541,0
DA:542,0
DA:545,0
DA:546,0
DA:547,0
DA:548,0
DA:549,0
DA:550,0
DA:551,0
DA:552,0
DA:553,0
DA:554,0
DA:555,0
DA:556,0
DA:557,0
DA:563,3
DA:565,3
DA:567,0
DA:569,0
DA:570,0
DA:571,0
DA:572,0
DA:573,0
DA:576,0
DA:577,0
DA:578,0
DA:579,0
DA:580,0
DA:581,0
DA:582,0
DA:583,0
DA:584,0
DA:585,0
DA:586,6
DA:587,3
DA:588,3
DA:589,3
LF:136
LH:39
end_of_record
SF:/Library/Developer/CommandLineTools/usr/include/c++/v1/__string
FN:209,_ZNSt3__111char_traitsIcE6assignERcRKc
FN:210,_ZNSt3__111char_traitsIcE2eqEcc
FN:218,_ZNSt3__111char_traitsIcE6lengthEPKc
FN:231,_ZNSt3__111char_traitsIcE7not_eofEi
FN:233,_ZNSt3__111char_traitsIcE12to_char_typeEi
FN:235,_ZNSt3__111char_traitsIcE11to_int_typeEc
FN:237,_ZNSt3__111char_traitsIcE11eq_int_typeEii
FN:239,_ZNSt3__111char_traitsIcE3eofEv
FNDA:771,_ZNSt3__111char_traitsIcE6assignERcRKc
FNDA:0,_ZNSt3__111char_traitsIcE2eqEcc
FNDA:101,_ZNSt3__111char_traitsIcE6lengthEPKc
FNDA:0,_ZNSt3__111char_traitsIcE7not_eofEi
FNDA:0,_ZNSt3__111char_traitsIcE12to_char_typeEi
FNDA:63,_ZNSt3__111char_traitsIcE11to_int_typeEc
FNDA:446,_ZNSt3__111char_traitsIcE11eq_int_typeEii
FNDA:501,_ZNSt3__111char_traitsIcE3eofEv
FNF:8
FNH:5
BRDA:232,0,0,-
BRDA:232,0,1,-
BRF:2
BRH:0
DA:209,771
DA:210,0
DA:211,0
DA:218,101
DA:231,0
DA:232,0
DA:233,0
DA:234,0
DA:235,63
DA:236,63
DA:237,446
DA:238,446
DA:239,501
DA:240,501
LF:14
LH:8
end_of_record
SF:/Library/Developer/CommandLineTools/usr/include/c++/v1/algorithm
FN:716,_ZNKSt3__16__lessIPcS1_EclERKS1_S4_
FN:716,_ZNKSt3__16__lessImmEclERKmS3_
FN:1583,_ZNSt3__1L13__unwrap_iterIPPN8automate5StateEEET_S5_
FN:1583,_ZNSt3__1L13__unwrap_iterIPmEET_S2_
FN:1648,_ZNSt3__1L6__copyImmEENS_9enable_ifIXaasr7is_sameINS_12remove_constIT_E4typeET0_EE5valuesr28is_trivially_copy_assignableIS6_EE5valueEPS6_E4typeEPS3_SA_S7_
FN:1659,_ZNSt3__1L4copyIPmS1_EET0_T_S3_S2_
FN:1787,_ZNSt3__1L6__moveIPN8automate5StateES3_EENS_9enable_ifIXaasr7is_sameINS_12remove_constIT_E4typeET0_EE5valuesr28is_trivially_copy_assignableIS9_EE5valueEPS9_E4typeEPS6_SD_SA_
FN:1798,_ZNSt3__1L4moveIPPN8automate5StateES4_EET0_T_S6_S5_
FN:1823,_ZNSt3__1L15__move_backwardIPN8automate5StateES3_EENS_9enable_ifIXaasr7is_sameINS_12remove_constIT_E4typeET0_EE5valuesr28is_trivially_copy_assignableIS9_EE5valueEPS9_E4typeEPS6_SD_SA_
FN:1837,_ZNSt3__1L13move_backwardIPPN8automate5StateES4_EET0_T_S6_S5_
FN:2454,_ZNSt3__1L3minImNS_6__lessImmEEEERKT_S5_S5_T0_
FN:2462,_ZNSt3__1L3minImEERKT_S3_S3_
FN:2521,_ZNSt3__1L3maxImNS_6__lessImmEEEERKT_S5_S5_T0_
FN:2521,_ZNSt3__1L3maxIPcNS_6__lessIS1_S1_EEEERKT_S6_S6_T0_
FN:2529,_ZNSt3__1L3maxIPcEERKT_S4_S4_
FN:2529,_ZNSt3__1L3maxImEERKT_S3_S3_
FNDA:145,_ZNKSt3__16__lessImmEclERKmS3_
FNDA:63,_ZNKSt3__16__lessIPcS1_EclERKS1_S4_
FNDA:120,_ZNSt3__1L13__unwrap_iterIPmEET_S2_
FNDA:0,_ZNSt3__1L13__unwrap_iterIPPN8automate5StateEEET_S5_
FNDA:40,_ZNSt3__1L6__copyImmEENS_9enable_ifIXaasr7is_sameINS_12remove_constIT_E4typeET0_EE5valuesr28is_trivially_copy_assignableIS6_EE5valueEPS6_E4typeEPS3_SA_S7_
FNDA:40,_ZNSt3__1L4copyIPmS1_EET0_T_S3_S2_
FNDA:0,_ZNSt3__1L6__moveIPN8automate5StateES3_EENS_9enable_ifIXaasr7is_sameINS_12remove_constIT_E4typeET0_EE5valuesr28is_trivially_copy_assignableIS9_EE5valueEPS9_E4typeEPS6_SD_SA_
FNDA:0,_ZNSt3__1L4moveIPPN8automate5StateES4_EET0_T_S6_S5_
FNDA:0,_ZNSt3__1L15__move_backwardIPN8automate5StateES3_EENS_9enable_ifIXaasr7is_sameINS_12remove_constIT_E4typeET0_EE5valuesr28is_trivially_copy_assignableIS9_EE5valueEPS9_E4typeEPS6_SD_SA_
FNDA:0,_ZNSt3__1L13move_backwardIPPN8automate5StateES4_EET0_T_S6_S5_
FNDA:142,_ZNSt3__1L3minImNS_6__lessImmEEEERKT_S5_S5_T0_
FNDA:142,_ZNSt3__1L3minImEERKT_S3_S3_
FNDA:3,_ZNSt3__1L3maxImNS_6__lessImmEEEERKT_S5_S5_T0_
FNDA:63,_ZNSt3__1L3maxIPcNS_6__lessIS1_S1_EEEERKT_S6_S6_T0_
FNDA:3,_ZNSt3__1L3maxImEERKT_S3_S3_
FNDA:63,_ZNSt3__1L3maxIPcEERKT_S4_S4_
FNF:16
FNH:11
BRDA:1651,0,0,40
BRDA:1651,0,1,0
BRDA:1790,0,0,-
BRDA:1790,0,1,-
BRDA:1826,0,0,-
BRDA:1826,0,1,-
BRDA:2456,0,0,0
BRDA:2456,0,1,142
BRDA:2523,0,0,3
BRDA:2523,0,1,0
BRDA:2523,4,2,0
BRDA:2523,4,3,63
BRF:12
BRH:4
DA:716,208
DA:1583,120
DA:1585,120
DA:1648,40
DA:1650,40
DA:1651,40
DA:1652,40
DA:1653,40
DA:1659,40
DA:1661,40
DA:1787,0
DA:1789,0
DA:1790,0
DA:1791,0
DA:1792,0
DA:1798,0
DA:1800,0
DA:1823,0
DA:1825,0
DA:1826,0
DA:1828,0
DA:1829,0
DA:1830,0
DA:1831,0
DA:1837,0
DA:1840,0
DA:2454,142
DA:2456,142
DA:2462,142
DA:2464,142
DA:2521,66
DA:2523,66
DA:2529,66
DA:2531,66
LF:34
LH:18
end_of_record
SF:/Library/Developer/CommandLineTools/usr/include/c++/v1/deque
FN:319,_ZNKSt3__116__deque_iteratorIN8automate5StateEPS2_RS2_PS3_lLl128EEdeEv
FN:322,_ZNSt3__116__deque_iteratorIN8automate5StateEPS2_RS2_PS3_lLl128EEppEv
FN:414,_ZNSt3__1eqERKNS_16__deque_iteratorIN8automate5StateEPS2_RS2_PS3_lLl128EEES8_
FN:418,_ZNSt3__1neERKNS_16__deque_iteratorIN8automate5StateEPS2_RS2_PS3_lLl128EEES8_
FN:439,_ZNSt3__116__deque_iteratorIN8automate5StateEPS2_RS2_PS3_lLl128EEC1ES5_S3_
FN:439,_ZNSt3__116__deque_iteratorIN8automate5StateEPS2_RS2_PS3_lLl128EEC2ES5_S3_
FN:970,_ZNSt3__112__deque_baseIN8automate5StateENS_9allocatorIS2_EEE4sizeEv
FN:972,_ZNKSt3__112__deque_baseIN8automate5StateENS_9allocatorIS2_EEE4sizeEv
FN:973,_ZNSt3__112__deque_baseIN8automate5StateENS_9allocatorIS2_EEE7__allocEv
FN:1071,_ZNSt3__112__deque_baseIN8automate5StateENS_9allocatorIS2_EEE5beginEv
FN:1087,_ZNSt3__112__deque_baseIN8automate5StateENS_9allocatorIS2_EEE3endEv
FN:1105,_ZNSt3__112__deque_baseIN8automate5StateENS_9allocatorIS2_EEEC2Ev
FN:1115,_ZNSt3__112__deque_baseIN8automate5StateENS_9allocatorIS2_EEED2Ev
FN:1176,_ZNSt3__112__deque_baseIN8automate5StateENS_9allocatorIS2_EEE5clearEv
FN:1199,_ZNSt3__15dequeIN8automate5StateENS_9allocatorIS2_EEED1Ev
FN:1199,_ZNSt3__15dequeIN8automate5StateENS_9allocatorIS2_EEED2Ev
FN:1228,_ZNSt3__15dequeIN8automate5StateENS_9allocatorIS2_EEEC1Ev
FN:1228,_ZNSt3__15dequeIN8automate5StateENS_9allocatorIS2_EEEC2Ev
FN:1320,_ZNKSt3__15dequeIN8automate5StateENS_9allocatorIS2_EEE4sizeEv
FN:1330,_ZNKSt3__15dequeIN8automate5StateENS_9allocatorIS2_EEE5emptyEv
FN:1412,_ZNKSt3__15dequeIN8automate5StateENS_9allocatorIS2_EEE10__capacityEv
FN:1417,_ZNKSt3__15dequeIN8automate5StateENS_9allocatorIS2_EEE13__front_spareEv
FN:1422,_ZNKSt3__15dequeIN8automate5StateENS_9allocatorIS2_EEE12__back_spareEv
FN:1807,_ZNSt3__15dequeIN8automate5StateENS_9allocatorIS2_EEE4backEv
FN:1824,_ZNSt3__15dequeIN8automate5StateENS_9allocatorIS2_EEE9push_backERKS2_
FN:1850,_ZNSt3__15dequeIN8automate5StateENS_9allocatorIS2_EEE9push_backEOS2_
FN:2453,_ZNSt3__15dequeIN8automate5StateENS_9allocatorIS2_EEE19__add_back_capacityEv
FN:2610,_ZNSt3__15dequeIN8automate5StateENS_9allocatorIS2_EEE8pop_backEv
FNDA:52,_ZNKSt3__116__deque_iteratorIN8automate5StateEPS2_RS2_PS3_lLl128EEdeEv
FNDA:4,_ZNSt3__116__deque_iteratorIN8automate5StateEPS2_RS2_PS3_lLl128EEppEv
FNDA:10,_ZNSt3__1eqERKNS_16__deque_iteratorIN8automate5StateEPS2_RS2_PS3_lLl128EEES8_
FNDA:10,_ZNSt3__1neERKNS_16__deque_iteratorIN8automate5StateEPS2_RS2_PS3_lLl128EEES8_
FNDA:60,_ZNSt3__116__deque_iteratorIN8automate5StateEPS2_RS2_PS3_lLl128EEC1ES5_S3_
FNDA:60,_ZNSt3__116__deque_iteratorIN8automate5StateEPS2_RS2_PS3_lLl128EEC2ES5_S3_
FNDA:242,_ZNSt3__112__deque_baseIN8automate5StateENS_9allocatorIS2_EEE4sizeEv
FNDA:124,_ZNKSt3__112__deque_baseIN8automate5StateENS_9allocatorIS2_EEE4sizeEv
FNDA:104,_ZNSt3__112__deque_baseIN8automate5StateENS_9allocatorIS2_EEE7__allocEv
FNDA:6,_ZNSt3__112__deque_baseIN8automate5StateENS_9allocatorIS2_EEE5beginEv
FNDA:54,_ZNSt3__112__deque_baseIN8automate5StateENS_9allocatorIS2_EEE3endEv
FNDA:6,_ZNSt3__112__deque_baseIN8automate5StateENS_9allocatorIS2_EEEC2Ev
FNDA:6,_ZNSt3__112__deque_baseIN8automate5StateENS_9allocatorIS2_EEED2Ev
FNDA:6,_ZNSt3__112__deque_baseIN8automate5StateENS_9allocatorIS2_EEE5clearEv
FNDA:6,_ZNSt3__15dequeIN8automate5StateENS_9allocatorIS2_EEED1Ev
FNDA:6,_ZNSt3__15dequeIN8automate5StateENS_9allocatorIS2_EEED2Ev
FNDA:6,_ZNSt3__15dequeIN8automate5StateENS_9allocatorIS2_EEEC1Ev
FNDA:6,_ZNSt3__15dequeIN8automate5StateENS_9allocatorIS2_EEEC2Ev
FNDA:30,_ZNKSt3__15dequeIN8automate5StateENS_9allocatorIS2_EEE4sizeEv
FNDA:2,_ZNKSt3__15dequeIN8automate5StateENS_9allocatorIS2_EEE5emptyEv
FNDA:92,_ZNKSt3__15dequeIN8automate5StateENS_9allocatorIS2_EEE10__capacityEv
FNDA:3,_ZNKSt3__15dequeIN8automate5StateENS_9allocatorIS2_EEE13__front_spareEv
FNDA:92,_ZNKSt3__15dequeIN8automate5StateENS_9allocatorIS2_EEE12__back_spareEv
FNDA:46,_ZNSt3__15dequeIN8automate5StateENS_9allocatorIS2_EEE4backEv
FNDA:24,_ZNSt3__15dequeIN8automate5StateENS_9allocatorIS2_EEE9push_backERKS2_
FNDA:24,_ZNSt3__15dequeIN8automate5StateENS_9allocatorIS2_EEE9push_backEOS2_
FNDA:3,_ZNSt3__15dequeIN8automate5StateENS_9allocatorIS2_EEE19__add_back_capacityEv
FNDA:44,_ZNSt3__15dequeIN8automate5StateENS_9allocatorIS2_EEE8pop_backEv
FNF:28
FNH:28
BRDA:324,0,0,0
BRDA:324,0,1,4
BRDA:1074,0,0,6
BRDA:1074,0,1,0
BRDA:1074,1,2,3
BRDA:1074,1,3,3
BRDA:1089,0,0,54
BRDA:1089,0,1,0
BRDA:1091,0,0,54
BRDA:1091,0,1,0
BRDA:1091,1,2,3
BRDA:1091,1,3,51
BRDA:1107,0,0,6
BRDA:1107,0,1,0
BRDA:1107,1,2,6
BRDA:1107,1,3,0
BRDA:1120,1,0,3
BRDA:1120,1,1,6
BRDA:1121,0,0,3
BRDA:1121,0,1,0
BRDA:1178,0,0,6
BRDA:1178,0,1,0
BRDA:1179,1,0,10
BRDA:1179,1,1,0
BRDA:1179,2,2,4
BRDA:1179,2,3,6
BRDA:1179,3,4,4
BRDA:1179,3,5,0
BRDA:1180,0,0,4
BRDA:1180,0,1,0
BRDA:1180,1,2,4
BRDA:1180,1,3,0
BRDA:1181,0,0,6
BRDA:1181,0,1,0
BRDA:1182,1,0,6
BRDA:1182,1,1,0
BRDA:1182,2,2,0
BRDA:1182,2,3,6
BRDA:1184,0,0,-
BRDA:1184,0,1,-
BRDA:1185,0,0,-
BRDA:1185,0,1,-
BRDA:1187,0,0,6
BRDA:1187,0,1,0
BRDA:1187,1,2,3
BRDA:1187,1,3,0
BRDA:1187,1,4,3
BRDA:1414,0,0,3
BRDA:1414,0,1,89
BRDA:1827,0,0,0
BRDA:1827,0,1,24
BRDA:1853,0,0,3
BRDA:1853,0,1,21
BRDA:2456,0,0,0
BRDA:2456,0,1,3
BRDA:2464,0,0,0
BRDA:2464,0,1,3
BRDA:2468,0,0,-
BRDA:2468,0,1,-
BRDA:2489,0,0,3
BRDA:2489,0,1,0
BRDA:2491,0,0,3
BRDA:2491,0,1,0
BRDA:2494,1,0,0
BRDA:2494,1,1,3
BRDA:2496,0,0,-
BRDA:2496,0,1,-
BRDA:2619,0,0,0
BRDA:2619,0,1,44
BRF:69
BRH:37
DA:319,52
DA:322,4
DA:324,4
DA:326,0
DA:327,0
DA:328,0
DA:329,4
DA:414,10
DA:415,10
DA:418,10
DA:419,10
DA:439,120
DA:440,120
DA:970,242
DA:972,124
DA:973,104
DA:978,6
DA:1071,6
DA:1073,6
DA:1074,6
DA:1087,54
DA:1089,54
DA:1090,54
DA:1091,54
DA:1105,6
DA:1107,12
DA:1115,6
DA:1117,6
DA:1118,6
DA:1119,6
DA:1120,9
DA:1121,3
DA:1122,6
DA:1176,6
DA:1178,6
DA:1179,10
DA:1180,4
DA:1181,6
DA:1182,6
DA:1184,0
DA:1185,0
DA:1187,6
DA:1190,3
DA:1191,3
DA:1193,0
DA:1194,0
DA:1196,6
DA:1199,12
DA:1228,12
DA:1230,18
DA:1320,30
DA:1330,2
DA:1412,92
DA:1414,92
DA:1417,3
DA:1419,3
DA:1422,92
DA:1424,92
DA:1807,46
DA:1809,46
DA:1810,46
DA:1824,24
DA:1826,24
DA:1827,24
DA:1828,0
DA:1830,24
DA:1831,24
DA:1832,24
DA:1850,24
DA:1852,24
DA:1853,24
DA:1854,3
DA:1856,24
DA:1857,24
DA:1858,24
DA:2453,3
DA:2455,3
DA:2456,3
DA:2458,0
DA:2459,0
DA:2460,0
DA:2461,0
DA:2462,0
DA:2464,3
DA:2468,0
DA:2469,0
DA:2472,0
DA:2474,0
DA:2475,0
DA:2476,0
DA:2478,0
DA:2483,6
DA:2484,3
DA:2485,3
DA:2488,3
DA:2489,3
DA:2490,3
DA:2491,3
DA:2492,3
DA:2494,3
DA:2495,3
DA:2496,0
DA:2497,3
DA:2498,3
DA:2499,3
DA:2500,3
DA:2501,3
DA:2502,3
DA:2610,44
DA:2613,44
DA:2614,44
DA:2615,132
DA:2616,88
DA:2617,44
DA:2618,44
DA:2619,44
DA:2621,0
DA:2622,0
DA:2623,0
DA:2624,44
LF:120
LH:96
end_of_record
SF:/Library/Developer/CommandLineTools/usr/include/c++/v1/exception
FN:101,_ZNSt9exceptionC2Ev
FNDA:4,_ZNSt9exceptionC2Ev
FNF:1
FNH:1
DA:101,4
LF:1
LH:1
end_of_record
SF:/Library/Developer/CommandLineTools/usr/include/c++/v1/ios
FN:345,_ZNSt3__18ios_baseC2Ev
FN:349,_ZNKSt3__18ios_base5rdbufEv
FN:459,_ZNKSt3__18ios_base5flagsEv
FN:521,_ZNKSt3__18ios_base5widthEv
FN:528,_ZNSt3__18ios_base5widthEl
FN:546,_ZNSt3__18ios_base8setstateEj
FN:633,_ZNSt3__19basic_iosIcNS_11char_traitsIcEEE8setstateEj
FN:675,_ZNSt3__19basic_iosIcNS_11char_traitsIcEEEC2Ev
FN:710,_ZNSt3__19basic_iosIcNS_11char_traitsIcEEE4initEPNS_15basic_streambufIcS2_EE
FN:738,_ZNKSt3__19basic_iosIcNS_11char_traitsIcEEE5rdbufEv
FN:776,_ZNKSt3__19basic_iosIcNS_11char_traitsIcEEE5widenEc
FN:784,_ZNKSt3__19basic_iosIcNS_11char_traitsIcEEE4fillEv
FNDA:0,_ZNSt3__18ios_baseC2Ev
FNDA:383,_ZNKSt3__18ios_base5rdbufEv
FNDA:383,_ZNKSt3__18ios_base5flagsEv
FNDA:383,_ZNKSt3__18ios_base5widthEv
FNDA:383,_ZNSt3__18ios_base5widthEl
FNDA:0,_ZNSt3__18ios_base8setstateEj
FNDA:0,_ZNSt3__19basic_iosIcNS_11char_traitsIcEEE8setstateEj
FNDA:0,_ZNSt3__19basic_iosIcNS_11char_traitsIcEEEC2Ev
FNDA:0,_ZNSt3__19basic_iosIcNS_11char_traitsIcEEE4initEPNS_15basic_streambufIcS2_EE
FNDA:383,_ZNKSt3__19basic_iosIcNS_11char_traitsIcEEE5rdbufEv
FNDA:37,_ZNKSt3__19basic_iosIcNS_11char_traitsIcEEE5widenEc
FNDA:383,_ZNKSt3__19basic_iosIcNS_11char_traitsIcEEE4fillEv
FNF:12
FNH:7
BRDA:778,0,0,37
BRDA:778,0,1,0
BRDA:778,1,2,37
BRDA:778,1,3,0
BRDA:786,0,0,37
BRDA:786,0,1,346
BRF:6
BRH:4
DA:345,0
DA:346,0
DA:349,383
DA:459,383
DA:461,383
DA:521,383
DA:523,383
DA:528,383
DA:530,383
DA:531,383
DA:532,383
DA:546,0
DA:548,0
DA:549,0
DA:633,0
DA:675,0
DA:676,0
DA:710,0
DA:712,0
DA:713,0
DA:714,0
DA:715,0
DA:738,383
DA:740,383
DA:776,37
DA:778,37
DA:779,0
DA:784,383
DA:786,383
DA:787,37
DA:788,383
LF:31
LH:17
end_of_record
SF:/Library/Developer/CommandLineTools/usr/include/c++/v1/iosfwd
FN:131,_ZNSt3__115basic_stringbufIcNS_11char_traitsIcEENS_9allocatorIcEEED1Ev
FN:131,_ZNSt3__115basic_stringbufIcNS_11char_traitsIcEENS_9allocatorIcEEED0Ev
FN:131,_ZNSt3__115basic_stringbufIcNS_11char_traitsIcEENS_9allocatorIcEEED2Ev
FN:140,_ZNSt3__118basic_stringstreamIcNS_11char_traitsIcEENS_9allocatorIcEEED0Ev
FN:140,_ZNSt3__118basic_stringstreamIcNS_11char_traitsIcEENS_9allocatorIcEEED1Ev
FN:140,_ZNSt3__118basic_stringstreamIcNS_11char_traitsIcEENS_9allocatorIcEEED2Ev
FNDA:55,_ZNSt3__115basic_stringbufIcNS_11char_traitsIcEENS_9allocatorIcEEED1Ev
FNDA:0,_ZNSt3__115basic_stringbufIcNS_11char_traitsIcEENS_9allocatorIcEEED0Ev
FNDA:55,_ZNSt3__115basic_stringbufIcNS_11char_traitsIcEENS_9allocatorIcEEED2Ev
FNDA:55,_ZNSt3__118basic_stringstreamIcNS_11char_traitsIcEENS_9allocatorIcEEED1Ev
FNDA:55,_ZNSt3__118basic_stringstreamIcNS_11char_traitsIcEENS_9allocatorIcEEED0Ev
FNDA:55,_ZNSt3__118basic_stringstreamIcNS_11char_traitsIcEENS_9allocatorIcEEED2Ev
FNF:6
FNH:5
DA:131,110
DA:140,165
LF:2
LH:2
end_of_record
SF:/Library/Developer/CommandLineTools/usr/include/c++/v1/istream
FN:191,_ZNSt3__113basic_istreamIcNS_11char_traitsIcEEEC2EPNS_15basic_streambufIcS2_EE
FN:1408,_ZNSt3__114basic_iostreamIcNS_11char_traitsIcEEEC2EPNS_15basic_streambufIcS2_EE
FNDA:0,_ZNSt3__113basic_istreamIcNS_11char_traitsIcEEEC2EPNS_15basic_streambufIcS2_EE
FNDA:0,_ZNSt3__114basic_iostreamIcNS_11char_traitsIcEEEC2EPNS_15basic_streambufIcS2_EE
FNF:2
FNH:0
BRDA:1408,1,0,-
BRDA:1408,1,1,-
BRF:2
BRH:0
DA:191,0
DA:192,0
DA:1408,0
DA:1409,0
DA:1410,0
LF:5
LH:0
end_of_record
SF:/Library/Developer/CommandLineTools/usr/include/c++/v1/iterator
FN:572,_ZNSt3__1L9__advanceIPmEEvRT_NS_15iterator_traitsIS2_E15difference_typeENS_26random_access_iterator_tagE
FN:580,_ZNSt3__1L7advanceIPmEEvRT_NS_15iterator_traitsIS2_E15difference_typeE
FN:600,_ZNSt3__1L10__distanceIPcEENS_15iterator_traitsIT_E15difference_typeES3_S3_NS_26random_access_iterator_tagE
FN:600,_ZNSt3__1L10__distanceIPmEENS_15iterator_traitsIT_E15difference_typeES3_S3_NS_26random_access_iterator_tagE
FN:608,_ZNSt3__1L8distanceIPmEENS_15iterator_traitsIT_E15difference_typeES3_S3_
FN:608,_ZNSt3__1L8distanceIPcEENS_15iterator_traitsIT_E15difference_typeES3_S3_
FN:1067,_ZNSt3__119ostreambuf_iteratorIcNS_11char_traitsIcEEEC2ERNS_13basic_ostreamIcS2_EE
FN:1067,_ZNSt3__119ostreambuf_iteratorIcNS_11char_traitsIcEEEC1ERNS_13basic_ostreamIcS2_EE
FN:1080,_ZNKSt3__119ostreambuf_iteratorIcNS_11char_traitsIcEEE6failedEv
FN:1121,_ZNSt3__113move_iteratorIPPN8automate5StateEEC2ES4_
FN:1121,_ZNSt3__113move_iteratorIPPN8automate5StateEEC1ES4_
FN:1125,_ZNKSt3__113move_iteratorIPPN8automate5StateEE4baseEv
FN:1127,_ZNKSt3__113move_iteratorIPPN8automate5StateEEdeEv
FN:1131,_ZNSt3__113move_iteratorIPPN8automate5StateEEppEv
FN:1169,_ZNSt3__1neIPPN8automate5StateES4_EEbRKNS_13move_iteratorIT_EERKNS5_IT0_EE
FN:1368,_ZNKSt3__111__wrap_iterIPKcEdeEv
FN:1384,_ZNSt3__111__wrap_iterIPKcEppEv
FN:1431,_ZNKSt3__111__wrap_iterIPKcE4baseEv
FN:1440,_ZNSt3__111__wrap_iterIPKcEC1ES2_
FN:1440,_ZNSt3__111__wrap_iterIPKcEC2ES2_
FN:1525,_ZNSt3__1eqIPKcS2_EEbRKNS_11__wrap_iterIT_EERKNS3_IT0_EE
FN:1577,_ZNSt3__1neIPKcEEbRKNS_11__wrap_iterIT_EES7_
FNDA:0,_ZNSt3__1L9__advanceIPmEEvRT_NS_15iterator_traitsIS2_E15difference_typeENS_26random_access_iterator_tagE
FNDA:0,_ZNSt3__1L7advanceIPmEEvRT_NS_15iterator_traitsIS2_E15difference_typeE
FNDA:40,_ZNSt3__1L10__distanceIPmEENS_15iterator_traitsIT_E15difference_typeES3_S3_NS_26random_access_iterator_tagE
FNDA:55,_ZNSt3__1L10__distanceIPcEENS_15iterator_traitsIT_E15difference_typeES3_S3_NS_26random_access_iterator_tagE
FNDA:40,_ZNSt3__1L8distanceIPmEENS_15iterator_traitsIT_E15difference_typeES3_S3_
FNDA:55,_ZNSt3__1L8distanceIPcEENS_15iterator_traitsIT_E15difference_typeES3_S3_
FNDA:383,_ZNSt3__119ostreambuf_iteratorIcNS_11char_traitsIcEEEC1ERNS_13basic_ostreamIcS2_EE
FNDA:383,_ZNSt3__119ostreambuf_iteratorIcNS_11char_traitsIcEEEC2ERNS_13basic_ostreamIcS2_EE
FNDA:383,_ZNKSt3__119ostreambuf_iteratorIcNS_11char_traitsIcEEE6failedEv
FNDA:0,_ZNSt3__113move_iteratorIPPN8automate5StateEEC1ES4_
FNDA:0,_ZNSt3__113move_iteratorIPPN8automate5StateEEC2ES4_
FNDA:0,_ZNKSt3__113move_iteratorIPPN8automate5StateEE4baseEv
FNDA:0,_ZNKSt3__113move_iteratorIPPN8automate5StateEEdeEv
FNDA:0,_ZNSt3__113move_iteratorIPPN8automate5StateEEppEv
FNDA:0,_ZNSt3__1neIPPN8automate5StateES4_EEbRKNS_13move_iteratorIT_EERKNS5_IT0_EE
FNDA:65,_ZNKSt3__111__wrap_iterIPKcEdeEv
FNDA:62,_ZNSt3__111__wrap_iterIPKcEppEv
FNDA:136,_ZNKSt3__111__wrap_iterIPKcE4baseEv
FNDA:12,_ZNSt3__111__wrap_iterIPKcEC1ES2_
FNDA:12,_ZNSt3__111__wrap_iterIPKcEC2ES2_
FNDA:68,_ZNSt3__1eqIPKcS2_EEbRKNS_11__wrap_iterIT_EERKNS3_IT0_EE
FNDA:68,_ZNSt3__1neIPKcEEbRKNS_11__wrap_iterIT_EES7_
FNF:22
FNH:14
BRDA:1068,1,0,383
BRDA:1068,1,1,0
BRF:2
BRH:1
DA:572,0
DA:575,0
DA:576,0
DA:580,0
DA:583,0
DA:584,0
DA:600,95
DA:602,95
DA:608,95
DA:610,95
DA:1067,766
DA:1068,766
DA:1080,383
DA:1121,0
DA:1125,0
DA:1127,0
DA:1131,0
DA:1169,0
DA:1171,0
DA:1368,65
DA:1374,65
DA:1384,62
DA:1390,62
DA:1391,62
DA:1431,136
DA:1440,24
DA:1525,68
DA:1527,68
DA:1577,68
DA:1579,68
LF:30
LH:18
end_of_record
SF:/Library/Developer/CommandLineTools/usr/include/c++/v1/limits
FN:215,_ZNSt3__123__libcpp_numeric_limitsIlLb1EE3maxEv
FN:452,_ZNSt3__114numeric_limitsIlE3maxEv
FNDA:142,_ZNSt3__123__libcpp_numeric_limitsIlLb1EE3maxEv
FNDA:142,_ZNSt3__114numeric_limitsIlE3maxEv
FNF:2
FNH:2
DA:215,142
DA:452,142
LF:2
LH:2
end_of_record
SF:/Library/Developer/CommandLineTools/usr/include/c++/v1/locale
FN:1383,_ZNSt3__116__pad_and_outputIcNS_11char_traitsIcEEEENS_19ostreambuf_iteratorIT_T0_EES6_PKS4_S8_S8_RNS_8ios_baseES4_
FNDA:383,_ZNSt3__116__pad_and_outputIcNS_11char_traitsIcEEEENS_19ostreambuf_iteratorIT_T0_EES6_PKS4_S8_S8_RNS_8ios_baseES4_
FNF:1
FNH:1
BRDA:1387,0,0,0
BRDA:1387,0,1,383
BRDA:1391,0,0,0
BRDA:1391,0,1,383
BRDA:1396,0,0,0
BRDA:1396,0,1,383
BRDA:1398,0,0,-
BRDA:1398,0,1,-
BRDA:1404,0,0,0
BRDA:1404,0,1,383
BRDA:1407,0,0,-
BRDA:1407,0,1,-
BRDA:1407,1,2,-
BRDA:1407,1,3,-
BRDA:1412,2,0,-
BRDA:1412,2,1,-
BRDA:1412,2,2,-
BRDA:1414,0,0,383
BRDA:1414,0,1,0
BRDA:1416,0,0,0
BRDA:1416,0,1,383
BRF:21
BRH:6
DA:1383,383
DA:1387,383
DA:1388,0
DA:1389,383
DA:1390,383
DA:1391,383
DA:1392,0
DA:1394,383
DA:1395,383
DA:1396,383
DA:1398,0
DA:1400,0
DA:1401,0
DA:1403,0
DA:1404,383
DA:1406,0
DA:1407,0
DA:1409,0
DA:1410,0
DA:1412,0
DA:1413,383
DA:1414,383
DA:1416,383
DA:1418,0
DA:1419,0
DA:1421,383
DA:1422,383
DA:1423,383
DA:1424,383
LF:29
LH:16
end_of_record
SF:/Library/Developer/CommandLineTools/usr/include/c++/v1/memory
FN:988,_ZNSt3__114pointer_traitsIPcE10pointer_toERc
FN:988,_ZNSt3__114pointer_traitsIPKcE10pointer_toERS1_
FN:1106,_ZNSt3__1L16__to_raw_pointerIN8automate5StateEEEPT_S4_
FN:1106,_ZNSt3__1L16__to_raw_pointerIPN8automate5StateEEEPT_S5_
FN:1106,_ZNSt3__1L16__to_raw_pointerImEEPT_S2_
FN:1106,_ZNSt3__1L16__to_raw_pointerIcEEPT_S2_
FN:1106,_ZNSt3__1L16__to_raw_pointerIKcEEPT_S3_
FN:1546,_ZNSt3__116allocator_traitsINS_9allocatorImEEE8allocateERS2_m
FN:1546,_ZNSt3__116allocator_traitsINS_9allocatorIPN8automate5StateEEEE8allocateERS5_m
FN:1546,_ZNSt3__116allocator_traitsINS_9allocatorIN8automate5StateEEEE8allocateERS4_m
FN:1546,_ZNSt3__116allocator_traitsINS_9allocatorIcEEE8allocateERS2_m
FN:1554,_ZNSt3__116allocator_traitsINS_9allocatorIPN8automate5StateEEEE10deallocateERS5_PS4_m
FN:1554,_ZNSt3__116allocator_traitsINS_9allocatorImEEE10deallocateERS2_Pmm
FN:1554,_ZNSt3__116allocator_traitsINS_9allocatorIN8automate5StateEEEE10deallocateERS4_PS3_m
FN:1560,_ZNSt3__116allocator_traitsINS_9allocatorIPN8automate5StateEEEE9constructIS4_JS4_EEEvRS5_PT_DpOT0_
FN:1560,_ZNSt3__116allocator_traitsINS_9allocatorIN8automate5StateEEEE9constructIS3_JS3_EEEvRS4_PT_DpOT0_
FN:1560,_ZNSt3__116allocator_traitsINS_9allocatorIN8automate5StateEEEE9constructIS3_JRKS3_EEEvRS4_PT_DpOT0_
FN:1560,_ZNSt3__116allocator_traitsINS_9allocatorIPN8automate5StateEEEE9constructIS4_JRKS4_EEEvRS5_PT_DpOT0_
FN:1595,_ZNSt3__116allocator_traitsINS_9allocatorIPN8automate5StateEEEE7destroyIS4_EEvRS5_PT_
FN:1595,_ZNSt3__116allocator_traitsINS_9allocatorIN8automate5StateEEEE7destroyIS3_EEvRS4_PT_
FN:1595,_ZNSt3__116allocator_traitsINS_9allocatorImEEE7destroyImEEvRS2_PT_
FN:1599,_ZNSt3__116allocator_traitsINS_9allocatorImEEE8max_sizeERKS2_
FN:1599,_ZNSt3__116allocator_traitsINS_9allocatorIcEEE8max_sizeERKS2_
FN:1604,_ZNSt3__116allocator_traitsINS_9allocatorImEEE37select_on_container_copy_constructionERKS2_
FN:1662,_ZNSt3__116allocator_traitsINS_9allocatorImEEE25__construct_range_forwardImmmmEENS_9enable_ifIXaaaasr31is_trivially_move_constructibleIT0_EE5valuesr7is_sameIT1_T2_EE5valueooL_ZNS_17integral_constantIbLb1EE5valueEEntsr15__has_constructIS2_PS6_RT_EE5valueEvE4typeERS2_PSC_SH_RSB_
FN:1717,_ZNSt3__116allocator_traitsINS_9allocatorIN8automate5StateEEEE11__constructIS3_JS3_EEEvNS_17integral_constantIbLb1EEERS4_PT_DpOT0_
FN:1717,_ZNSt3__116allocator_traitsINS_9allocatorIPN8automate5StateEEEE11__constructIS4_JRKS4_EEEvNS_17integral_constantIbLb1EEERS5_PT_DpOT0_
FN:1717,_ZNSt3__116allocator_traitsINS_9allocatorIPN8automate5StateEEEE11__constructIS4_JS4_EEEvNS_17integral_constantIbLb1EEERS5_PT_DpOT0_
FN:1717,_ZNSt3__116allocator_traitsINS_9allocatorIN8automate5StateEEEE11__constructIS3_JRKS3_EEEvNS_17integral_constantIbLb1EEERS4_PT_DpOT0_
FN:1742,_ZNSt3__116allocator_traitsINS_9allocatorIN8automate5StateEEEE9__destroyIS3_EEvNS_17integral_constantIbLb1EEERS4_PT_
FN:1742,_ZNSt3__116allocator_traitsINS_9allocatorIPN8automate5StateEEEE9__destroyIS4_EEvNS_17integral_constantIbLb1EEERS5_PT_
FN:1742,_ZNSt3__116allocator_traitsINS_9allocatorImEEE9__destroyImEEvNS_17integral_constantIbLb1EEERS2_PT_
FN:1752,_ZNSt3__116allocator_traitsINS_9allocatorIcEEE10__max_sizeENS_17integral_constantIbLb1EEERKS2_
FN:1752,_ZNSt3__116allocator_traitsINS_9allocatorImEEE10__max_sizeENS_17integral_constantIbLb1EEERKS2_
FN:1764,_ZNSt3__116allocator_traitsINS_9allocatorImEEE39__select_on_container_copy_constructionENS_17integral_constantIbLb0EEERKS2_
FN:1798,_ZNSt3__19allocatorIN8automate5StateEEC2Ev
FN:1798,_ZNSt3__19allocatorIcEC2Ev
FN:1798,_ZNSt3__19allocatorIPN8automate5StateEEC2Ev
FN:1809,_ZNSt3__19allocatorIN8automate5StateEE8allocateEmPKv
FN:1809,_ZNSt3__19allocatorIPN8automate5StateEE8allocateEmPKv
FN:1809,_ZNSt3__19allocatorIcE8allocateEmPKv
FN:1809,_ZNSt3__19allocatorImE8allocateEmPKv
FN:1816,_ZNSt3__19allocatorImE10deallocateEPmm
FN:1816,_ZNSt3__19allocatorIPN8automate5StateEE10deallocateEPS3_m
FN:1816,_ZNSt3__19allocatorIN8automate5StateEE10deallocateEPS2_m
FN:1818,_ZNKSt3__19allocatorIN8automate5StateEE8max_sizeEv
FN:1818,_ZNKSt3__19allocatorIPN8automate5StateEE8max_sizeEv
FN:1818,_ZNKSt3__19allocatorIcE8max_sizeEv
FN:1818,_ZNKSt3__19allocatorImE8max_sizeEv
FN:1824,_ZNSt3__19allocatorIPN8automate5StateEE9constructIS3_JS3_EEEvPT_DpOT0_
FN:1824,_ZNSt3__19allocatorIN8automate5StateEE9constructIS2_JRKS2_EEEvPT_DpOT0_
FN:1824,_ZNSt3__19allocatorIPN8automate5StateEE9constructIS3_JRKS3_EEEvPT_DpOT0_
FN:1824,_ZNSt3__19allocatorIN8automate5StateEE9constructIS2_JS2_EEEvPT_DpOT0_
FN:1881,_ZNSt3__19allocatorIPN8automate5StateEE7destroyEPS3_
FN:1881,_ZNSt3__19allocatorIN8automate5StateEE7destroyEPS2_
FN:1881,_ZNSt3__19allocatorImE7destroyEPm
FN:2140,_ZNSt3__122__compressed_pair_elemINS_12basic_stringIcNS_11char_traitsIcEENS_9allocatorIcEEE5__repELi0ELb0EEC2Ev
FN:2147,_ZNSt3__122__compressed_pair_elemImLi0ELb0EEC2IivEEOT_
FN:2147,_ZNSt3__122__compressed_pair_elemIPPN8automate5StateELi0ELb0EEC2IDnvEEOT_
FN:2147,_ZNSt3__122__compressed_pair_elemINS_22__allocator_destructorINS_9allocatorIN8automate5StateEEEEELi1ELb0EEC2IS6_vEEOT_
FN:2147,_ZNSt3__122__compressed_pair_elemIRNS_9allocatorIPN8automate5StateEEELi1ELb0EEC2IS6_vEEOT_
FN:2147,_ZNSt3__122__compressed_pair_elemIPmLi0ELb0EEC2IDnvEEOT_
FN:2147,_ZNSt3__122__compressed_pair_elemIPN8automate5StateELi0ELb0EEC2IRS3_vEEOT_
FN:2163,_ZNSt3__122__compressed_pair_elemIRNS_9allocatorIPN8automate5StateEEELi1ELb0EE5__getEv
FN:2163,_ZNSt3__122__compressed_pair_elemImLi0ELb0EE5__getEv
FN:2163,_ZNSt3__122__compressed_pair_elemIPNS_12basic_stringIcNS_11char_traitsIcEENS_9allocatorIcEEEELi0ELb0EE5__getEv
FN:2163,_ZNSt3__122__compressed_pair_elemINS_12basic_stringIcNS_11char_traitsIcEENS_9allocatorIcEEE5__repELi0ELb0EE5__getEv
FN:2163,_ZNSt3__122__compressed_pair_elemIPNS_18basic_stringstreamIcNS_11char_traitsIcEENS_9allocatorIcEEEELi0ELb0EE5__getEv
FN:2163,_ZNSt3__122__compressed_pair_elemINS_22__allocator_destructorINS_9allocatorIN8automate5StateEEEEELi1ELb0EE5__getEv
FN:2163,_ZNSt3__122__compressed_pair_elemIPPN8automate5StateELi0ELb0EE5__getEv
FN:2163,_ZNSt3__122__compressed_pair_elemIPN8automate5StateELi0ELb0EE5__getEv
FN:2163,_ZNSt3__122__compressed_pair_elemIPmLi0ELb0EE5__getEv
FN:2165,_ZNKSt3__122__compressed_pair_elemIPNS_12basic_stringIcNS_11char_traitsIcEENS_9allocatorIcEEEELi0ELb0EE5__getEv
FN:2165,_ZNKSt3__122__compressed_pair_elemIPPN8automate5StateELi0ELb0EE5__getEv
FN:2165,_ZNKSt3__122__compressed_pair_elemINS_12basic_stringIcNS_11char_traitsIcEENS_9allocatorIcEEE5__repELi0ELb0EE5__getEv
FN:2165,_ZNKSt3__122__compressed_pair_elemImLi0ELb0EE5__getEv
FN:2165,_ZNKSt3__122__compressed_pair_elemIPN8automate5StateELi0ELb0EE5__getEv
FN:2165,_ZNKSt3__122__compressed_pair_elemIPmLi0ELb0EE5__getEv
FN:2179,_ZNSt3__122__compressed_pair_elemINS_9allocatorIN8automate5StateEEELi1ELb1EEC2Ev
FN:2179,_ZNSt3__122__compressed_pair_elemINS_9allocatorIcEELi1ELb1EEC2Ev
FN:2179,_ZNSt3__122__compressed_pair_elemINS_9allocatorIPN8automate5StateEEELi1ELb1EEC2Ev
FN:2186,_ZNSt3__122__compressed_pair_elemINS_9allocatorIcEELi1ELb1EEC2IRKS2_vEEOT_
FN:2186,_ZNSt3__122__compressed_pair_elemINS_9allocatorImEELi1ELb1EEC2IS2_vEEOT_
FN:2202,_ZNSt3__122__compressed_pair_elemINS_9allocatorImEELi1ELb1EE5__getEv
FN:2202,_ZNSt3__122__compressed_pair_elemINS_14default_deleteINS_12basic_stringIcNS_11char_traitsIcEENS_9allocatorIcEEEEEELi1ELb1EE5__getEv
FN:2202,_ZNSt3__122__compressed_pair_elemINS_9allocatorIPN8automate5StateEEELi1ELb1EE5__getEv
FN:2202,_ZNSt3__122__compressed_pair_elemINS_14default_deleteINS_18basic_stringstreamIcNS_11char_traitsIcEENS_9allocatorIcEEEEEELi1ELb1EE5__getEv
FN:2202,_ZNSt3__122__compressed_pair_elemINS_9allocatorIcEELi1ELb1EE5__getEv
FN:2202,_ZNSt3__122__compressed_pair_elemINS_9allocatorIN8automate5StateEEELi1ELb1EE5__getEv
FN:2204,_ZNKSt3__122__compressed_pair_elemINS_9allocatorImEELi1ELb1EE5__getEv
FN:2204,_ZNKSt3__122__compressed_pair_elemINS_9allocatorIcEELi1ELb1EE5__getEv
FN:2234,_ZNSt3__117__compressed_pairINS_12basic_stringIcNS_11char_traitsIcEENS_9allocatorIcEEE5__repES5_EC2ILb1EvEEv
FN:2234,_ZNSt3__117__compressed_pairINS_12basic_stringIcNS_11char_traitsIcEENS_9allocatorIcEEE5__repES5_EC1ILb1EvEEv
FN:2240,_ZNSt3__117__compressed_pairImNS_9allocatorIN8automate5StateEEEEC2IiLb1EEEOT_
FN:2240,_ZNSt3__117__compressed_pairIPPN8automate5StateENS_9allocatorIS3_EEEC1IDnLb1EEEOT_
FN:2240,_ZNSt3__117__compressed_pairImNS_9allocatorIN8automate5StateEEEEC1IiLb1EEEOT_
FN:2240,_ZNSt3__117__compressed_pairIPPN8automate5StateENS_9allocatorIS3_EEEC2IDnLb1EEEOT_
FN:2245,_ZNSt3__117__compressed_pairINS_12basic_stringIcNS_11char_traitsIcEENS_9allocatorIcEEE5__repES5_EC2IRKS5_EENS_12__second_tagEOT_
FN:2245,_ZNSt3__117__compressed_pairINS_12basic_stringIcNS_11char_traitsIcEENS_9allocatorIcEEE5__repES5_EC1IRKS5_EENS_12__second_tagEOT_
FN:2250,_ZNSt3__117__compressed_pairIPPN8automate5StateERNS_9allocatorIS3_EEEC1IDnS7_EEOT_OT0_
FN:2250,_ZNSt3__117__compressed_pairIPmNS_9allocatorImEEEC2IDnS3_EEOT_OT0_
FN:2250,_ZNSt3__117__compressed_pairIPN8automate5StateENS_22__allocator_destructorINS_9allocatorIS2_EEEEEC2IRS3_S7_EEOT_OT0_
FN:2250,_ZNSt3__117__compressed_pairIPmNS_9allocatorImEEEC1IDnS3_EEOT_OT0_
FN:2250,_ZNSt3__117__compressed_pairIPPN8automate5StateERNS_9allocatorIS3_EEEC2IDnS7_EEOT_OT0_
FN:2250,_ZNSt3__117__compressed_pairIPN8automate5StateENS_22__allocator_destructorINS_9allocatorIS2_EEEEEC1IRS3_S7_EEOT_OT0_
FN:2279,_ZNSt3__117__compressed_pairIPPN8automate5StateERNS_9allocatorIS3_EEE5firstEv
FN:2279,_ZNSt3__117__compressed_pairImNS_9allocatorIN8automate5StateEEEE5firstEv
FN:2279,_ZNSt3__117__compressed_pairIPPN8automate5StateENS_9allocatorIS3_EEE5firstEv
FN:2279,_ZNSt3__117__compressed_pairINS_12basic_stringIcNS_11char_traitsIcEENS_9allocatorIcEEE5__repES5_E5firstEv
FN:2279,_ZNSt3__117__compressed_pairIPNS_12basic_stringIcNS_11char_traitsIcEENS_9allocatorIcEEEENS_14default_deleteIS6_EEE5firstEv
FN:2279,_ZNSt3__117__compressed_pairIPN8automate5StateENS_22__allocator_destructorINS_9allocatorIS2_EEEEE5firstEv
FN:2279,_ZNSt3__117__compressed_pairIPmNS_9allocatorImEEE5firstEv
FN:2279,_ZNSt3__117__compressed_pairIPNS_18basic_stringstreamIcNS_11char_traitsIcEENS_9allocatorIcEEEENS_14default_deleteIS6_EEE5firstEv
FN:2284,_ZNKSt3__117__compressed_pairIPmNS_9allocatorImEEE5firstEv
FN:2284,_ZNKSt3__117__compressed_pairIPPN8automate5StateENS_9allocatorIS3_EEE5firstEv
FN:2284,_ZNKSt3__117__compressed_pairIPNS_12basic_stringIcNS_11char_traitsIcEENS_9allocatorIcEEEENS_14default_deleteIS6_EEE5firstEv
FN:2284,_ZNKSt3__117__compressed_pairImNS_9allocatorIN8automate5StateEEEE5firstEv
FN:2284,_ZNKSt3__117__compressed_pairINS_12basic_stringIcNS_11char_traitsIcEENS_9allocatorIcEEE5__repES5_E5firstEv
FN:2284,_ZNKSt3__117__compressed_pairIPN8automate5StateENS_22__allocator_destructorINS_9allocatorIS2_EEEEE5firstEv
FN:2284,_ZNKSt3__117__compressed_pairIPPN8automate5StateERNS_9allocatorIS3_EEE5firstEv
FN:2289,_ZNSt3__117__compressed_pairIPN8automate5StateENS_22__allocator_destructorINS_9allocatorIS2_EEEEE6secondEv
FN:2289,_ZNSt3__117__compressed_pairIPPN8automate5StateERNS_9allocatorIS3_EEE6secondEv
FN:2289,_ZNSt3__117__compressed_pairIPNS_12basic_stringIcNS_11char_traitsIcEENS_9allocatorIcEEEENS_14default_deleteIS6_EEE6secondEv
FN:2289,_ZNSt3__117__compressed_pairIPPN8automate5StateENS_9allocatorIS3_EEE6secondEv
FN:2289,_ZNSt3__117__compressed_pairImNS_9allocatorIN8automate5StateEEEE6secondEv
FN:2289,_ZNSt3__117__compressed_pairINS_12basic_stringIcNS_11char_traitsIcEENS_9allocatorIcEEE5__repES5_E6secondEv
FN:2289,_ZNSt3__117__compressed_pairIPNS_18basic_stringstreamIcNS_11char_traitsIcEENS_9allocatorIcEEEENS_14default_deleteIS6_EEE6secondEv
FN:2289,_ZNSt3__117__compressed_pairIPmNS_9allocatorImEEE6secondEv
FN:2294,_ZNKSt3__117__compressed_pairINS_12basic_stringIcNS_11char_traitsIcEENS_9allocatorIcEEE5__repES5_E6secondEv
FN:2294,_ZNKSt3__117__compressed_pairIPmNS_9allocatorImEEE6secondEv
FN:2334,_ZNKSt3__114default_deleteINS_12basic_stringIcNS_11char_traitsIcEENS_9allocatorIcEEEEEclEPS6_
FN:2334,_ZNKSt3__114default_deleteINS_18basic_stringstreamIcNS_11char_traitsIcEENS_9allocatorIcEEEEEclEPS6_
FN:2482,_ZNSt3__110unique_ptrIPN8automate5StateENS_22__allocator_destructorINS_9allocatorIS2_EEEEEC2ILb1EvEES3_NS_16__dependent_typeINS_27__unique_ptr_deleter_sfinaeIS7_EEXT_EE20__good_rval_ref_typeE
FN:2482,_ZNSt3__110unique_ptrIPN8automate5StateENS_22__allocator_destructorINS_9allocatorIS2_EEEEEC1ILb1EvEES3_NS_16__dependent_typeINS_27__unique_ptr_deleter_sfinaeIS7_EEXT_EE20__good_rval_ref_typeE
FN:2606,_ZNSt3__110unique_ptrIPN8automate5StateENS_22__allocator_destructorINS_9allocatorIS2_EEEEED1Ev
FN:2606,_ZNSt3__110unique_ptrIPN8automate5StateENS_22__allocator_destructorINS_9allocatorIS2_EEEEED2Ev
FN:2606,_ZNSt3__110unique_ptrINS_18basic_stringstreamIcNS_11char_traitsIcEENS_9allocatorIcEEEENS_14default_deleteIS6_EEED1Ev
FN:2606,_ZNSt3__110unique_ptrINS_12basic_stringIcNS_11char_traitsIcEENS_9allocatorIcEEEENS_14default_deleteIS6_EEED1Ev
FN:2606,_ZNSt3__110unique_ptrINS_12basic_stringIcNS_11char_traitsIcEENS_9allocatorIcEEEENS_14default_deleteIS6_EEED2Ev
FN:2606,_ZNSt3__110unique_ptrINS_18basic_stringstreamIcNS_11char_traitsIcEENS_9allocatorIcEEEENS_14default_deleteIS6_EEED2Ev
FN:2620,_ZNKSt3__110unique_ptrINS_12basic_stringIcNS_11char_traitsIcEENS_9allocatorIcEEEENS_14default_deleteIS6_EEEptEv
FN:2624,_ZNKSt3__110unique_ptrINS_12basic_stringIcNS_11char_traitsIcEENS_9allocatorIcEEEENS_14default_deleteIS6_EEE3getEv
FN:2624,_ZNKSt3__110unique_ptrIPN8automate5StateENS_22__allocator_destructorINS_9allocatorIS2_EEEEE3getEv
FN:2641,_ZNSt3__110unique_ptrIPN8automate5StateENS_22__allocator_destructorINS_9allocatorIS2_EEEEE7releaseEv
FN:2648,_ZNSt3__110unique_ptrIPN8automate5StateENS_22__allocator_destructorINS_9allocatorIS2_EEEEE5resetES3_
FN:2648,_ZNSt3__110unique_ptrINS_18basic_stringstreamIcNS_11char_traitsIcEENS_9allocatorIcEEEENS_14default_deleteIS6_EEE5resetEPS6_
FN:2648,_ZNSt3__110unique_ptrINS_12basic_stringIcNS_11char_traitsIcEENS_9allocatorIcEEEENS_14default_deleteIS6_EEE5resetEPS6_
FN:3218,_ZNSt3__122__allocator_destructorINS_9allocatorIN8automate5StateEEEEC2ERS4_m
FN:3218,_ZNSt3__122__allocator_destructorINS_9allocatorIN8automate5StateEEEEC1ERS4_m
FN:3222,_ZNSt3__122__allocator_destructorINS_9allocatorIN8automate5StateEEEEclEPS3_
FNDA:8,_ZNSt3__114pointer_traitsIPKcE10pointer_toERS1_
FNDA:157,_ZNSt3__114pointer_traitsIPcE10pointer_toERc
FNDA:1706,_ZNSt3__1L16__to_raw_pointerImEEPT_S2_
FNDA:6,_ZNSt3__1L16__to_raw_pointerIPN8automate5StateEEEPT_S5_
FNDA:0,_ZNSt3__1L16__to_raw_pointerIKcEEPT_S3_
FNDA:44,_ZNSt3__1L16__to_raw_pointerIN8automate5StateEEEPT_S4_
FNDA:126,_ZNSt3__1L16__to_raw_pointerIcEEPT_S2_
FNDA:142,_ZNSt3__116allocator_traitsINS_9allocatorImEEE8allocateERS2_m
FNDA:3,_ZNSt3__116allocator_traitsINS_9allocatorIN8automate5StateEEEE8allocateERS4_m
FNDA:3,_ZNSt3__116allocator_traitsINS_9allocatorIPN8automate5StateEEEE8allocateERS5_m
FNDA:8,_ZNSt3__116allocator_traitsINS_9allocatorIcEEE8allocateERS2_m
FNDA:118,_ZNSt3__116allocator_traitsINS_9allocatorImEEE10deallocateERS2_Pmm
FNDA:3,_ZNSt3__116allocator_traitsINS_9allocatorIN8automate5StateEEEE10deallocateERS4_PS3_m
FNDA:3,_ZNSt3__116allocator_traitsINS_9allocatorIPN8automate5StateEEEE10deallocateERS5_PS4_m
FNDA:24,_ZNSt3__116allocator_traitsINS_9allocatorIN8automate5StateEEEE9constructIS3_JRKS3_EEEvRS4_PT_DpOT0_
FNDA:0,_ZNSt3__116allocator_traitsINS_9allocatorIPN8automate5StateEEEE9constructIS4_JRKS4_EEEvRS5_PT_DpOT0_
FNDA:3,_ZNSt3__116allocator_traitsINS_9allocatorIPN8automate5StateEEEE9constructIS4_JS4_EEEvRS5_PT_DpOT0_
FNDA:24,_ZNSt3__116allocator_traitsINS_9allocatorIN8automate5StateEEEE9constructIS3_JS3_EEEvRS4_PT_DpOT0_
FNDA:410,_ZNSt3__116allocator_traitsINS_9allocatorImEEE7destroyImEEvRS2_PT_
FNDA:48,_ZNSt3__116allocator_traitsINS_9allocatorIN8automate5StateEEEE7destroyIS3_EEvRS4_PT_
FNDA:3,_ZNSt3__116allocator_traitsINS_9allocatorIPN8automate5StateEEEE7destroyIS4_EEvRS5_PT_
FNDA:142,_ZNSt3__116allocator_traitsINS_9allocatorImEEE8max_sizeERKS2_
FNDA:55,_ZNSt3__116allocator_traitsINS_9allocatorIcEEE8max_sizeERKS2_
FNDA:70,_ZNSt3__116allocator_traitsINS_9allocatorImEEE37select_on_container_copy_constructionERKS2_
FNDA:118,_ZNSt3__116allocator_traitsINS_9allocatorImEEE25__construct_range_forwardImmmmEENS_9enable_ifIXaaaasr31is_trivially_move_constructibleIT0_EE5valuesr7is_sameIT1_T2_EE5valueooL_ZNS_17integral_constantIbLb1EE5valueEEntsr15__has_constructIS2_PS6_RT_EE5valueEvE4typeERS2_PSC_SH_RSB_
FNDA:3,_ZNSt3__116allocator_traitsINS_9allocatorIPN8automate5StateEEEE11__constructIS4_JS4_EEEvNS_17integral_constantIbLb1EEERS5_PT_DpOT0_
FNDA:0,_ZNSt3__116allocator_traitsINS_9allocatorIPN8automate5StateEEEE11__constructIS4_JRKS4_EEEvNS_17integral_constantIbLb1EEERS5_PT_DpOT0_
FNDA:24,_ZNSt3__116allocator_traitsINS_9allocatorIN8automate5StateEEEE11__constructIS3_JRKS3_EEEvNS_17integral_constantIbLb1EEERS4_PT_DpOT0_
FNDA:24,_ZNSt3__116allocator_traitsINS_9allocatorIN8automate5StateEEEE11__constructIS3_JS3_EEEvNS_17integral_constantIbLb1EEERS4_PT_DpOT0_
FNDA:410,_ZNSt3__116allocator_traitsINS_9allocatorImEEE9__destroyImEEvNS_17integral_constantIbLb1EEERS2_PT_
FNDA:48,_ZNSt3__116allocator_traitsINS_9allocatorIN8automate5StateEEEE9__destroyIS3_EEvNS_17integral_constantIbLb1EEERS4_PT_
FNDA:3,_ZNSt3__116allocator_traitsINS_9allocatorIPN8automate5StateEEEE9__destroyIS4_EEvNS_17integral_constantIbLb1EEERS5_PT_
FNDA:142,_ZNSt3__116allocator_traitsINS_9allocatorImEEE10__max_sizeENS_17integral_constantIbLb1EEERKS2_
FNDA:55,_ZNSt3__116allocator_traitsINS_9allocatorIcEEE10__max_sizeENS_17integral_constantIbLb1EEERKS2_
FNDA:70,_ZNSt3__116allocator_traitsINS_9allocatorImEEE39__select_on_container_copy_constructionENS_17integral_constantIbLb0EEERKS2_
FNDA:6,_ZNSt3__19allocatorIPN8automate5StateEEC2Ev
FNDA:6,_ZNSt3__19allocatorIN8automate5StateEEC2Ev
FNDA:12,_ZNSt3__19allocatorIcEC2Ev
FNDA:142,_ZNSt3__19allocatorImE8allocateEmPKv
FNDA:3,_ZNSt3__19allocatorIN8automate5StateEE8allocateEmPKv
FNDA:3,_ZNSt3__19allocatorIPN8automate5StateEE8allocateEmPKv
FNDA:8,_ZNSt3__19allocatorIcE8allocateEmPKv
FNDA:118,_ZNSt3__19allocatorImE10deallocateEPmm
FNDA:3,_ZNSt3__19allocatorIN8automate5StateEE10deallocateEPS2_m
FNDA:3,_ZNSt3__19allocatorIPN8automate5StateEE10deallocateEPS3_m
FNDA:284,_ZNKSt3__19allocatorImE8max_sizeEv
FNDA:3,_ZNKSt3__19allocatorIN8automate5StateEE8max_sizeEv
FNDA:3,_ZNKSt3__19allocatorIPN8automate5StateEE8max_sizeEv
FNDA:63,_ZNKSt3__19allocatorIcE8max_sizeEv
FNDA:3,_ZNSt3__19allocatorIPN8automate5StateEE9constructIS3_JS3_EEEvPT_DpOT0_
FNDA:0,_ZNSt3__19allocatorIPN8automate5StateEE9constructIS3_JRKS3_EEEvPT_DpOT0_
FNDA:24,_ZNSt3__19allocatorIN8automate5StateEE9constructIS2_JRKS2_EEEvPT_DpOT0_
FNDA:24,_ZNSt3__19allocatorIN8automate5StateEE9constructIS2_JS2_EEEvPT_DpOT0_
FNDA:410,_ZNSt3__19allocatorImE7destroyEPm
FNDA:48,_ZNSt3__19allocatorIN8automate5StateEE7destroyEPS2_
FNDA:3,_ZNSt3__19allocatorIPN8automate5StateEE7destroyEPS3_
FNDA:67,_ZNSt3__122__compressed_pair_elemINS_12basic_stringIcNS_11char_traitsIcEENS_9allocatorIcEEE5__repELi0ELb0EEC2Ev
FNDA:94,_ZNSt3__122__compressed_pair_elemIPmLi0ELb0EEC2IDnvEEOT_
FNDA:9,_ZNSt3__122__compressed_pair_elemIPPN8automate5StateELi0ELb0EEC2IDnvEEOT_
FNDA:6,_ZNSt3__122__compressed_pair_elemImLi0ELb0EEC2IivEEOT_
FNDA:3,_ZNSt3__122__compressed_pair_elemIRNS_9allocatorIPN8automate5StateEEELi1ELb0EEC2IS6_vEEOT_
FNDA:3,_ZNSt3__122__compressed_pair_elemIPN8automate5StateELi0ELb0EEC2IRS3_vEEOT_
FNDA:3,_ZNSt3__122__compressed_pair_elemINS_22__allocator_destructorINS_9allocatorIN8automate5StateEEEEELi1ELb0EEC2IS6_vEEOT_
FNDA:214,_ZNSt3__122__compressed_pair_elemIPmLi0ELb0EE5__getEv
FNDA:242,_ZNSt3__122__compressed_pair_elemImLi0ELb0EE5__getEv
FNDA:110,_ZNSt3__122__compressed_pair_elemIPNS_18basic_stringstreamIcNS_11char_traitsIcEENS_9allocatorIcEEEELi0ELb0EE5__getEv
FNDA:4,_ZNSt3__122__compressed_pair_elemIPNS_12basic_stringIcNS_11char_traitsIcEENS_9allocatorIcEEEELi0ELb0EE5__getEv
FNDA:6,_ZNSt3__122__compressed_pair_elemIRNS_9allocatorIPN8automate5StateEEELi1ELb0EE5__getEv
FNDA:12,_ZNSt3__122__compressed_pair_elemIPN8automate5StateELi0ELb0EE5__getEv
FNDA:12,_ZNSt3__122__compressed_pair_elemIPPN8automate5StateELi0ELb0EE5__getEv
FNDA:0,_ZNSt3__122__compressed_pair_elemINS_22__allocator_destructorINS_9allocatorIN8automate5StateEEEEELi1ELb0EE5__getEv
FNDA:244,_ZNSt3__122__compressed_pair_elemINS_12basic_stringIcNS_11char_traitsIcEENS_9allocatorIcEEE5__repELi0ELb0EE5__getEv
FNDA:766,_ZNKSt3__122__compressed_pair_elemIPmLi0ELb0EE5__getEv
FNDA:9,_ZNKSt3__122__compressed_pair_elemIPPN8automate5StateELi0ELb0EE5__getEv
FNDA:0,_ZNKSt3__122__compressed_pair_elemIPNS_12basic_stringIcNS_11char_traitsIcEENS_9allocatorIcEEEELi0ELb0EE5__getEv
FNDA:359,_ZNKSt3__122__compressed_pair_elemINS_12basic_stringIcNS_11char_traitsIcEENS_9allocatorIcEEE5__repELi0ELb0EE5__getEv
FNDA:124,_ZNKSt3__122__compressed_pair_elemImLi0ELb0EE5__getEv
FNDA:3,_ZNKSt3__122__compressed_pair_elemIPN8automate5StateELi0ELb0EE5__getEv
FNDA:6,_ZNSt3__122__compressed_pair_elemINS_9allocatorIPN8automate5StateEEELi1ELb1EEC2Ev
FNDA:6,_ZNSt3__122__compressed_pair_elemINS_9allocatorIN8automate5StateEEELi1ELb1EEC2Ev
FNDA:12,_ZNSt3__122__compressed_pair_elemINS_9allocatorIcEELi1ELb1EEC2Ev
FNDA:94,_ZNSt3__122__compressed_pair_elemINS_9allocatorImEELi1ELb1EEC2IS2_vEEOT_
FNDA:55,_ZNSt3__122__compressed_pair_elemINS_9allocatorIcEELi1ELb1EEC2IRKS2_vEEOT_
FNDA:812,_ZNSt3__122__compressed_pair_elemINS_9allocatorImEELi1ELb1EE5__getEv
FNDA:104,_ZNSt3__122__compressed_pair_elemINS_9allocatorIN8automate5StateEEELi1ELb1EE5__getEv
FNDA:9,_ZNSt3__122__compressed_pair_elemINS_9allocatorIPN8automate5StateEEELi1ELb1EE5__getEv
FNDA:55,_ZNSt3__122__compressed_pair_elemINS_14default_deleteINS_18basic_stringstreamIcNS_11char_traitsIcEENS_9allocatorIcEEEEEELi1ELb1EE5__getEv
FNDA:0,_ZNSt3__122__compressed_pair_elemINS_14default_deleteINS_12basic_stringIcNS_11char_traitsIcEENS_9allocatorIcEEEEEELi1ELb1EE5__getEv
FNDA:8,_ZNSt3__122__compressed_pair_elemINS_9allocatorIcEELi1ELb1EE5__getEv
FNDA:212,_ZNKSt3__122__compressed_pair_elemINS_9allocatorImEELi1ELb1EE5__getEv
FNDA:110,_ZNKSt3__122__compressed_pair_elemINS_9allocatorIcEELi1ELb1EE5__getEv
FNDA:12,_ZNSt3__117__compressed_pairINS_12basic_stringIcNS_11char_traitsIcEENS_9allocatorIcEEE5__repES5_EC1ILb1EvEEv
FNDA:12,_ZNSt3__117__compressed_pairINS_12basic_stringIcNS_11char_traitsIcEENS_9allocatorIcEEE5__repES5_EC2ILb1EvEEv
FNDA:6,_ZNSt3__117__compressed_pairImNS_9allocatorIN8automate5StateEEEEC1IiLb1EEEOT_
FNDA:6,_ZNSt3__117__compressed_pairIPPN8automate5StateENS_9allocatorIS3_EEEC1IDnLb1EEEOT_
FNDA:6,_ZNSt3__117__compressed_pairIPPN8automate5StateENS_9allocatorIS3_EEEC2IDnLb1EEEOT_
FNDA:6,_ZNSt3__117__compressed_pairImNS_9allocatorIN8automate5StateEEEEC2IiLb1EEEOT_
FNDA:55,_ZNSt3__117__compressed_pairINS_12basic_stringIcNS_11char_traitsIcEENS_9allocatorIcEEE5__repES5_EC1IRKS5_EENS_12__second_tagEOT_
FNDA:55,_ZNSt3__117__compressed_pairINS_12basic_stringIcNS_11char_traitsIcEENS_9allocatorIcEEE5__repES5_EC2IRKS5_EENS_12__second_tagEOT_
FNDA:94,_ZNSt3__117__compressed_pairIPmNS_9allocatorImEEEC1IDnS3_EEOT_OT0_
FNDA:94,_ZNSt3__117__compressed_pairIPmNS_9allocatorImEEEC2IDnS3_EEOT_OT0_
FNDA:3,_ZNSt3__117__compressed_pairIPPN8automate5StateERNS_9allocatorIS3_EEEC1IDnS7_EEOT_OT0_
FNDA:3,_ZNSt3__117__compressed_pairIPPN8automate5StateERNS_9allocatorIS3_EEEC2IDnS7_EEOT_OT0_
FNDA:3,_ZNSt3__117__compressed_pairIPN8automate5StateENS_22__allocator_destructorINS_9allocatorIS2_EEEEEC1IRS3_S7_EEOT_OT0_
FNDA:3,_ZNSt3__117__compressed_pairIPN8automate5StateENS_22__allocator_destructorINS_9allocatorIS2_EEEEEC2IRS3_S7_EEOT_OT0_
FNDA:214,_ZNSt3__117__compressed_pairIPmNS_9allocatorImEEE5firstEv
FNDA:242,_ZNSt3__117__compressed_pairImNS_9allocatorIN8automate5StateEEEE5firstEv
FNDA:110,_ZNSt3__117__compressed_pairIPNS_18basic_stringstreamIcNS_11char_traitsIcEENS_9allocatorIcEEEENS_14default_deleteIS6_EEE5firstEv
FNDA:4,_ZNSt3__117__compressed_pairIPNS_12basic_stringIcNS_11char_traitsIcEENS_9allocatorIcEEEENS_14default_deleteIS6_EEE5firstEv
FNDA:12,_ZNSt3__117__compressed_pairIPN8automate5StateENS_22__allocator_destructorINS_9allocatorIS2_EEEEE5firstEv
FNDA:3,_ZNSt3__117__compressed_pairIPPN8automate5StateENS_9allocatorIS3_EEE5firstEv
FNDA:9,_ZNSt3__117__compressed_pairIPPN8automate5StateERNS_9allocatorIS3_EEE5firstEv
FNDA:244,_ZNSt3__117__compressed_pairINS_12basic_stringIcNS_11char_traitsIcEENS_9allocatorIcEEE5__repES5_E5firstEv
FNDA:766,_ZNKSt3__117__compressed_pairIPmNS_9allocatorImEEE5firstEv
FNDA:9,_ZNKSt3__117__compressed_pairIPPN8automate5StateENS_9allocatorIS3_EEE5firstEv
FNDA:0,_ZNKSt3__117__compressed_pairIPNS_12basic_stringIcNS_11char_traitsIcEENS_9allocatorIcEEEENS_14default_deleteIS6_EEE5firstEv
FNDA:359,_ZNKSt3__117__compressed_pairINS_12basic_stringIcNS_11char_traitsIcEENS_9allocatorIcEEE5__repES5_E5firstEv
FNDA:124,_ZNKSt3__117__compressed_pairImNS_9allocatorIN8automate5StateEEEE5firstEv
FNDA:3,_ZNKSt3__117__compressed_pairIPN8automate5StateENS_22__allocator_destructorINS_9allocatorIS2_EEEEE5firstEv
FNDA:0,_ZNKSt3__117__compressed_pairIPPN8automate5StateERNS_9allocatorIS3_EEE5firstEv
FNDA:812,_ZNSt3__117__compressed_pairIPmNS_9allocatorImEEE6secondEv
FNDA:104,_ZNSt3__117__compressed_pairImNS_9allocatorIN8automate5StateEEEE6secondEv
FNDA:9,_ZNSt3__117__compressed_pairIPPN8automate5StateENS_9allocatorIS3_EEE6secondEv
FNDA:55,_ZNSt3__117__compressed_pairIPNS_18basic_stringstreamIcNS_11char_traitsIcEENS_9allocatorIcEEEENS_14default_deleteIS6_EEE6secondEv
FNDA:0,_ZNSt3__117__compressed_pairIPNS_12basic_stringIcNS_11char_traitsIcEENS_9allocatorIcEEEENS_14default_deleteIS6_EEE6secondEv
FNDA:6,_ZNSt3__117__compressed_pairIPPN8automate5StateERNS_9allocatorIS3_EEE6secondEv
FNDA:0,_ZNSt3__117__compressed_pairIPN8automate5StateENS_22__allocator_destructorINS_9allocatorIS2_EEEEE6secondEv
FNDA:8,_ZNSt3__117__compressed_pairINS_12basic_stringIcNS_11char_traitsIcEENS_9allocatorIcEEE5__repES5_E6secondEv
FNDA:212,_ZNKSt3__117__compressed_pairIPmNS_9allocatorImEEE6secondEv
FNDA:110,_ZNKSt3__117__compressed_pairINS_12basic_stringIcNS_11char_traitsIcEENS_9allocatorIcEEE5__repES5_E6secondEv
FNDA:55,_ZNKSt3__114default_deleteINS_18basic_stringstreamIcNS_11char_traitsIcEENS_9allocatorIcEEEEEclEPS6_
FNDA:0,_ZNKSt3__114default_deleteINS_12basic_stringIcNS_11char_traitsIcEENS_9allocatorIcEEEEEclEPS6_
FNDA:3,_ZNSt3__110unique_ptrIPN8automate5StateENS_22__allocator_destructorINS_9allocatorIS2_EEEEEC1ILb1EvEES3_NS_16__dependent_typeINS_27__unique_ptr_deleter_sfinaeIS7_EEXT_EE20__good_rval_ref_typeE
FNDA:3,_ZNSt3__110unique_ptrIPN8automate5StateENS_22__allocator_destructorINS_9allocatorIS2_EEEEEC2ILb1EvEES3_NS_16__dependent_typeINS_27__unique_ptr_deleter_sfinaeIS7_EEXT_EE20__good_rval_ref_typeE
FNDA:55,_ZNSt3__110unique_ptrINS_18basic_stringstreamIcNS_11char_traitsIcEENS_9allocatorIcEEEENS_14default_deleteIS6_EEED1Ev
FNDA:55,_ZNSt3__110unique_ptrINS_18basic_stringstreamIcNS_11char_traitsIcEENS_9allocatorIcEEEENS_14default_deleteIS6_EEED2Ev
FNDA:2,_ZNSt3__110unique_ptrINS_12basic_stringIcNS_11char_traitsIcEENS_9allocatorIcEEEENS_14default_deleteIS6_EEED1Ev
FNDA:2,_ZNSt3__110unique_ptrINS_12basic_stringIcNS_11char_traitsIcEENS_9allocatorIcEEEENS_14default_deleteIS6_EEED2Ev
FNDA:3,_ZNSt3__110unique_ptrIPN8automate5StateENS_22__allocator_destructorINS_9allocatorIS2_EEEEED1Ev
FNDA:3,_ZNSt3__110unique_ptrIPN8automate5StateENS_22__allocator_destructorINS_9allocatorIS2_EEEEED2Ev
FNDA:0,_ZNKSt3__110unique_ptrINS_12basic_stringIcNS_11char_traitsIcEENS_9allocatorIcEEEENS_14default_deleteIS6_EEEptEv
FNDA:0,_ZNKSt3__110unique_ptrINS_12basic_stringIcNS_11char_traitsIcEENS_9allocatorIcEEEENS_14default_deleteIS6_EEE3getEv
FNDA:3,_ZNKSt3__110unique_ptrIPN8automate5StateENS_22__allocator_destructorINS_9allocatorIS2_EEEEE3getEv
FNDA:3,_ZNSt3__110unique_ptrIPN8automate5StateENS_22__allocator_destructorINS_9allocatorIS2_EEEEE7releaseEv
FNDA:55,_ZNSt3__110unique_ptrINS_18basic_stringstreamIcNS_11char_traitsIcEENS_9allocatorIcEEEENS_14default_deleteIS6_EEE5resetEPS6_
FNDA:2,_ZNSt3__110unique_ptrINS_12basic_stringIcNS_11char_traitsIcEENS_9allocatorIcEEEENS_14default_deleteIS6_EEE5resetEPS6_
FNDA:3,_ZNSt3__110unique_ptrIPN8automate5StateENS_22__allocator_destructorINS_9allocatorIS2_EEEEE5resetES3_
FNDA:3,_ZNSt3__122__allocator_destructorINS_9allocatorIN8automate5StateEEEEC1ERS4_m
FNDA:3,_ZNSt3__122__allocator_destructorINS_9allocatorIN8automate5StateEEEEC2ERS4_m
FNDA:0,_ZNSt3__122__allocator_destructorINS_9allocatorIN8automate5StateEEEEclEPS3_
FNF:150
FNH:135
BRDA:1665,0,0,118
BRDA:1665,0,1,0
BRDA:1811,0,0,0
BRDA:1811,0,1,142
BRDA:1811,1,2,0
BRDA:1811,1,3,3
BRDA:1811,2,4,0
BRDA:1811,2,5,3
BRDA:1811,3,6,0
BRDA:1811,3,7,8
BRDA:1817,0,0,118
BRDA:1817,0,1,0
BRDA:1817,3,2,3
BRDA:1817,3,3,0
BRDA:1817,6,4,3
BRDA:1817,6,5,0
BRDA:2339,0,0,55
BRDA:2339,0,1,0
BRDA:2339,2,2,-
BRDA:2339,2,3,-
BRDA:2483,0,0,3
BRDA:2483,0,1,0
BRDA:2651,0,0,55
BRDA:2651,0,1,0
BRDA:2651,1,2,0
BRDA:2651,1,3,2
BRDA:2651,2,4,0
BRDA:2651,2,5,3
BRF:28
BRH:13
DA:988,165
DA:990,165
DA:1106,1882
DA:1108,1882
DA:1546,156
DA:1547,156
DA:1554,124
DA:1555,124
DA:1560,51
DA:1561,102
DA:1562,102
DA:1595,461
DA:1596,461
DA:1599,197
DA:1600,197
DA:1604,70
DA:1605,70
DA:1606,70
DA:1607,70
DA:1662,118
DA:1664,118
DA:1665,118
DA:1667,118
DA:1668,118
DA:1669,118
DA:1670,118
DA:1717,51
DA:1718,51
DA:1742,461
DA:1743,461
DA:1752,197
DA:1753,197
DA:1764,70
DA:1765,70
DA:1798,24
DA:1809,156
DA:1811,156
DA:1812,0
DA:1814,156
DA:1816,124
DA:1817,124
DA:1818,353
DA:1819,353
DA:1824,51
DA:1826,51
DA:1827,51
DA:1881,461
DA:2140,67
DA:2147,118
DA:2148,118
DA:2150,118
DA:2163,844
DA:2165,1261
DA:2179,24
DA:2186,149
DA:2187,149
DA:2188,298
DA:2202,988
DA:2204,322
DA:2234,24
DA:2240,24
DA:2241,24
DA:2245,110
DA:2246,110
DA:2250,200
DA:2251,200
DA:2279,838
DA:2280,838
DA:2284,1261
DA:2285,1261
DA:2289,994
DA:2290,994
DA:2294,322
DA:2295,322
DA:2334,55
DA:2339,55
DA:2340,55
DA:2482,6
DA:2483,6
DA:2486,6
DA:2606,120
DA:2620,0
DA:2621,0
DA:2624,3
DA:2625,3
DA:2641,3
DA:2642,3
DA:2643,3
DA:2644,3
DA:2648,60
DA:2649,60
DA:2650,60
DA:2651,60
DA:2652,55
DA:2653,60
DA:3218,6
DA:3220,6
DA:3222,0
DA:3223,0
LF:99
LH:94
end_of_record
SF:/Library/Developer/CommandLineTools/usr/include/c++/v1/new
FN:215,_ZNSt3__1L24__is_overaligned_for_newEm
FN:223,_ZNSt3__1L17__libcpp_allocateEmm
FN:245,_ZNSt3__117_DeallocateCaller33__do_deallocate_handle_size_alignEPvmm
FN:275,_ZNSt3__117_DeallocateCaller27__do_deallocate_handle_sizeEPvm
FN:285,_ZNSt3__117_DeallocateCaller27__do_deallocate_handle_sizeEPvmSt11align_val_t
FN:307,_ZNSt3__117_DeallocateCaller9__do_callISt11align_val_tEEvPvT_
FN:316,_ZNSt3__117_DeallocateCaller9__do_callEPv
FN:325,_ZNSt3__1L19__libcpp_deallocateEPvmm
FNDA:280,_ZNSt3__1L24__is_overaligned_for_newEm
FNDA:156,_ZNSt3__1L17__libcpp_allocateEmm
FNDA:124,_ZNSt3__117_DeallocateCaller33__do_deallocate_handle_size_alignEPvmm
FNDA:148,_ZNSt3__117_DeallocateCaller27__do_deallocate_handle_sizeEPvm
FNDA:0,_ZNSt3__117_DeallocateCaller27__do_deallocate_handle_sizeEPvmSt11align_val_t
FNDA:0,_ZNSt3__117_DeallocateCaller9__do_callISt11align_val_tEEvPvT_
FNDA:148,_ZNSt3__117_DeallocateCaller9__do_callEPv
FNDA:124,_ZNSt3__1L19__libcpp_deallocateEPvmm
FNF:8
FNH:6
BRDA:225,0,0,0
BRDA:225,0,1,156
BRDA:250,0,0,0
BRDA:250,0,1,124
BRF:4
BRH:2
DA:215,280
DA:217,280
DA:223,156
DA:225,156
DA:226,0
DA:230,0
DA:239,156
DA:241,156
DA:245,124
DA:250,124
DA:251,0
DA:252,0
DA:254,124
DA:257,124
DA:275,148
DA:278,148
DA:285,0
DA:288,0
DA:307,0
DA:312,0
DA:316,148
DA:320,148
DA:325,124
DA:326,124
DA:327,124
LF:25
LH:17
end_of_record
SF:/Library/Developer/CommandLineTools/usr/include/c++/v1/optional
FN:172,_ZNSt19bad_optional_accessC2Ev
FN:172,_ZNSt19bad_optional_accessC1Ev
FN:190,_ZNSt3__1L27__throw_bad_optional_accessEv
FN:271,_ZNSt3__124__optional_destruct_baseImLb1EEC2IJRmEEENS_10in_place_tEDpOT_
FN:290,_ZNSt3__123__optional_storage_baseImLb0EECI2NS_24__optional_destruct_baseImLb1EEEIJRmEEENS_10in_place_tEDpOT_
FN:293,_ZNKSt3__123__optional_storage_baseImLb0EE9has_valueEv
FN:299,_ZNRSt3__123__optional_storage_baseImLb0EE5__getEv
FN:451,_ZNSt3__120__optional_copy_baseImLb1EECI2NS_24__optional_destruct_baseImLb1EEEIJRmEEENS_10in_place_tEDpOT_
FN:479,_ZNSt3__120__optional_move_baseImLb1EECI2NS_24__optional_destruct_baseImLb1EEEIJRmEEENS_10in_place_tEDpOT_
FN:512,_ZNSt3__127__optional_copy_assign_baseImLb1EECI2NS_24__optional_destruct_baseImLb1EEEIJRmEEENS_10in_place_tEDpOT_
FN:544,_ZNSt3__127__optional_move_assign_baseImLb1EECI2NS_24__optional_destruct_baseImLb1EEEIJRmEEENS_10in_place_tEDpOT_
FN:709,_ZNSt3__18optionalImEC1IRmLi0EEEOT_
FN:709,_ZNSt3__18optionalImEC2IRmLi0EEEOT_
FN:956,_ZNOSt3__18optionalImE5valueEv
FNDA:0,_ZNSt19bad_optional_accessC1Ev
FNDA:0,_ZNSt19bad_optional_accessC2Ev
FNDA:0,_ZNSt3__1L27__throw_bad_optional_accessEv
FNDA:2,_ZNSt3__124__optional_destruct_baseImLb1EEC2IJRmEEENS_10in_place_tEDpOT_
FNDA:2,_ZNSt3__123__optional_storage_baseImLb0EECI2NS_24__optional_destruct_baseImLb1EEEIJRmEEENS_10in_place_tEDpOT_
FNDA:2,_ZNKSt3__123__optional_storage_baseImLb0EE9has_valueEv
FNDA:2,_ZNRSt3__123__optional_storage_baseImLb0EE5__getEv
FNDA:2,_ZNSt3__120__optional_copy_baseImLb1EECI2NS_24__optional_destruct_baseImLb1EEEIJRmEEENS_10in_place_tEDpOT_
FNDA:2,_ZNSt3__120__optional_move_baseImLb1EECI2NS_24__optional_destruct_baseImLb1EEEIJRmEEENS_10in_place_tEDpOT_
FNDA:2,_ZNSt3__127__optional_copy_assign_baseImLb1EECI2NS_24__optional_destruct_baseImLb1EEEIJRmEEENS_10in_place_tEDpOT_
FNDA:2,_ZNSt3__127__optional_move_assign_baseImLb1EECI2NS_24__optional_destruct_baseImLb1EEEIJRmEEENS_10in_place_tEDpOT_
FNDA:2,_ZNSt3__18optionalImEC1IRmLi0EEEOT_
FNDA:2,_ZNSt3__18optionalImEC2IRmLi0EEEOT_
FNDA:2,_ZNOSt3__18optionalImE5valueEv
FNF:14
FNH:11
BRDA:958,0,0,0
BRDA:958,0,1,2
BRF:2
BRH:1
DA:172,0
DA:190,0
DA:192,0
DA:196,0
DA:271,2
DA:272,2
DA:273,2
DA:290,2
DA:293,2
DA:295,2
DA:299,2
DA:301,2
DA:451,2
DA:479,2
DA:512,2
DA:544,2
DA:709,4
DA:710,4
DA:956,2
DA:958,2
DA:959,0
DA:960,2
LF:22
LH:17
end_of_record
SF:/Library/Developer/CommandLineTools/usr/include/c++/v1/ostream
FN:237,_ZNSt3__113basic_ostreamIcNS_11char_traitsIcEEEC2Ev
FN:255,_ZNKSt3__113basic_ostreamIcNS_11char_traitsIcEEE6sentrycvbEv
FN:715,_ZNSt3__124__put_character_sequenceIcNS_11char_traitsIcEEEERNS_13basic_ostreamIT_T0_EES7_PKS4_m
FN:863,_ZNSt3__1lsINS_11char_traitsIcEEEERNS_13basic_ostreamIcT_EES6_PKc
FNDA:0,_ZNSt3__113basic_ostreamIcNS_11char_traitsIcEEEC2Ev
FNDA:383,_ZNKSt3__113basic_ostreamIcNS_11char_traitsIcEEE6sentrycvbEv
FNDA:383,_ZNSt3__124__put_character_sequenceIcNS_11char_traitsIcEEEERNS_13basic_ostreamIT_T0_EES7_PKS4_m
FNDA:37,_ZNSt3__1lsINS_11char_traitsIcEEEERNS_13basic_ostreamIcT_EES6_PKc
FNF:4
FNH:3
BRDA:722,0,0,383
BRDA:722,0,1,0
BRDA:723,0,0,383
BRDA:723,0,1,0
BRDA:723,1,2,383
BRDA:723,1,3,0
BRDA:726,0,0,383
BRDA:726,0,1,0
BRDA:726,1,2,0
BRDA:726,1,3,383
BRDA:726,2,4,0
BRDA:726,2,5,383
BRDA:728,0,0,383
BRDA:728,0,1,0
BRDA:728,1,2,0
BRDA:728,1,3,383
BRDA:733,0,0,383
BRDA:733,0,1,0
BRDA:734,0,0,-
BRDA:734,0,1,-
BRDA:740,0,0,-
BRDA:740,0,1,-
BRDA:741,1,0,-
BRDA:741,1,1,-
BRF:24
BRH:9
DA:237,0
DA:255,383
DA:715,383
DA:722,383
DA:723,383
DA:726,766
DA:727,383
DA:728,383
DA:729,0
DA:730,383
DA:731,383
DA:732,383
DA:733,766
DA:734,0
DA:735,383
DA:737,383
DA:740,0
DA:741,0
DA:743,383
DA:744,0
DA:863,37
DA:865,37
LF:22
LH:16
end_of_record
SF:/Library/Developer/CommandLineTools/usr/include/c++/v1/sstream
FN:242,_ZNSt3__115basic_stringbufIcNS_11char_traitsIcEENS_9allocatorIcEEEC1Ej
FN:242,_ZNSt3__115basic_stringbufIcNS_11char_traitsIcEENS_9allocatorIcEEEC2Ej
FN:439,_ZNKSt3__115basic_stringbufIcNS_11char_traitsIcEENS_9allocatorIcEEE3strEv
FN:487,_ZNSt3__115basic_stringbufIcNS_11char_traitsIcEENS_9allocatorIcEEE9underflowEv
FN:503,_ZNSt3__115basic_stringbufIcNS_11char_traitsIcEENS_9allocatorIcEEE9pbackfailEi
FN:527,_ZNSt3__115basic_stringbufIcNS_11char_traitsIcEENS_9allocatorIcEEE8overflowEi
FN:569,_ZNSt3__115basic_stringbufIcNS_11char_traitsIcEENS_9allocatorIcEEE7seekoffExNS_8ios_base7seekdirEj
FN:621,_ZNSt3__115basic_stringbufIcNS_11char_traitsIcEENS_9allocatorIcEEE7seekposENS_4fposI11__mbstate_tEEj
FN:909,_ZNSt3__118basic_stringstreamIcNS_11char_traitsIcEENS_9allocatorIcEEEC1Ej
FN:970,_ZNKSt3__118basic_stringstreamIcNS_11char_traitsIcEENS_9allocatorIcEEE3strEv
FNDA:0,_ZNSt3__115basic_stringbufIcNS_11char_traitsIcEENS_9allocatorIcEEEC1Ej
FNDA:0,_ZNSt3__115basic_stringbufIcNS_11char_traitsIcEENS_9allocatorIcEEEC2Ej
FNDA:55,_ZNKSt3__115basic_stringbufIcNS_11char_traitsIcEENS_9allocatorIcEEE3strEv
FNDA:0,_ZNSt3__115basic_stringbufIcNS_11char_traitsIcEENS_9allocatorIcEEE9underflowEv
FNDA:0,_ZNSt3__115basic_stringbufIcNS_11char_traitsIcEENS_9allocatorIcEEE9pbackfailEi
FNDA:63,_ZNSt3__115basic_stringbufIcNS_11char_traitsIcEENS_9allocatorIcEEE8overflowEi
FNDA:0,_ZNSt3__115basic_stringbufIcNS_11char_traitsIcEENS_9allocatorIcEEE7seekoffExNS_8ios_base7seekdirEj
FNDA:0,_ZNSt3__115basic_stringbufIcNS_11char_traitsIcEENS_9allocatorIcEEE7seekposENS_4fposI11__mbstate_tEEj
FNDA:0,_ZNSt3__118basic_stringstreamIcNS_11char_traitsIcEENS_9allocatorIcEEEC1Ej
FNDA:0,_ZNKSt3__118basic_stringstreamIcNS_11char_traitsIcEENS_9allocatorIcEEE3strEv
FNF:10
FNH:2
BRDA:441,0,0,55
BRDA:441,0,1,0
BRDA:443,0,0,35
BRDA:443,0,1,20
BRDA:447,0,0,-
BRDA:447,0,1,-
BRDA:489,0,0,-
BRDA:489,0,1,-
BRDA:491,0,0,-
BRDA:491,0,1,-
BRDA:493,0,0,-
BRDA:493,0,1,-
BRDA:495,0,0,-
BRDA:495,0,1,-
BRDA:505,0,0,-
BRDA:505,0,1,-
BRDA:507,0,0,-
BRDA:507,0,1,-
BRDA:509,0,0,-
BRDA:509,0,1,-
BRDA:514,0,0,-
BRDA:514,0,1,-
BRDA:514,1,2,-
BRDA:514,1,3,-
BRDA:529,0,0,63
BRDA:529,0,1,0
BRDA:532,0,0,63
BRDA:532,0,1,0
BRDA:534,0,0,0
BRDA:534,0,1,63
BRDA:540,0,0,63
BRDA:540,0,1,0
BRDA:540,1,2,63
BRDA:540,1,3,0
BRDA:541,0,0,63
BRDA:541,0,1,0
BRDA:542,0,0,63
BRDA:542,0,1,0
BRDA:543,0,0,63
BRDA:543,0,1,0
BRDA:545,0,0,63
BRDA:545,0,1,0
BRDA:546,0,0,63
BRDA:546,0,1,0
BRDA:547,0,0,63
BRDA:547,0,1,0
BRDA:557,0,0,63
BRDA:557,0,1,0
BRDA:573,0,0,-
BRDA:573,0,1,-
BRDA:575,0,0,-
BRDA:575,0,1,-
BRDA:577,0,0,-
BRDA:577,0,1,-
BRDA:578,0,0,-
BRDA:578,0,1,-
BRDA:580,0,0,-
BRDA:580,0,1,-
BRDA:582,0,0,-
BRDA:582,0,1,-
BRDA:582,0,2,-
BRDA:582,0,3,-
BRDA:588,0,0,-
BRDA:588,0,1,-
BRDA:600,0,0,-
BRDA:600,0,1,-
BRDA:600,1,2,-
BRDA:600,1,3,-
BRDA:602,0,0,-
BRDA:602,0,1,-
BRDA:604,0,0,-
BRDA:604,0,1,-
BRDA:604,1,2,-
BRDA:604,1,3,-
BRDA:606,0,0,-
BRDA:606,0,1,-
BRDA:606,1,2,-
BRDA:606,1,3,-
BRDA:609,0,0,-
BRDA:609,0,1,-
BRDA:611,0,0,-
BRDA:611,0,1,-
BRDA:910,0,0,-
BRDA:910,0,1,-
BRDA:911,0,0,-
BRDA:911,0,1,-
BRF:86
BRH:15
DA:213,0
DA:242,0
DA:243,0
DA:244,0
DA:245,0
DA:246,0
DA:439,55
DA:441,55
DA:443,55
DA:444,35
DA:445,55
DA:447,0
DA:448,0
DA:449,0
DA:450,55
DA:487,0
DA:489,0
DA:490,0
DA:491,0
DA:493,0
DA:494,0
DA:495,0
DA:496,0
DA:497,0
DA:498,0
DA:499,0
DA:503,0
DA:505,0
DA:506,0
DA:507,0
DA:509,0
DA:511,0
DA:512,0
DA:514,0
DA:515,0
DA:517,0
DA:518,0
DA:519,0
DA:521,0
DA:522,0
DA:523,0
DA:527,63
DA:529,63
DA:531,63
DA:532,63
DA:534,63
DA:535,0
DA:540,63
DA:541,63
DA:542,63
DA:543,63
DA:544,63
DA:545,63
DA:546,63
DA:547,63
DA:549,63
DA:552,0
DA:553,0
DA:555,63
DA:556,63
DA:557,63
DA:559,63
DA:560,63
DA:561,63
DA:562,63
DA:564,0
DA:565,63
DA:569,0
DA:573,0
DA:574,0
DA:575,0
DA:576,0
DA:577,0
DA:578,0
DA:579,0
DA:580,0
DA:582,0
DA:585,0
DA:586,0
DA:588,0
DA:589,0
DA:591,0
DA:592,0
DA:594,0
DA:595,0
DA:597,0
DA:599,0
DA:600,0
DA:601,0
DA:602,0
DA:604,0
DA:605,0
DA:606,0
DA:607,0
DA:608,0
DA:609,0
DA:610,0
DA:611,0
DA:613,0
DA:614,0
DA:615,0
DA:616,0
DA:617,0
DA:621,0
DA:624,0
DA:885,0
DA:909,0
DA:910,0
DA:911,0
DA:912,0
DA:913,0
DA:970,0
DA:972,0
LF:113
LH:28
end_of_record
SF:/Library/Developer/CommandLineTools/usr/include/c++/v1/stack
FN:113,_ZNSt3__15stackIN8automate5StateENS_5dequeIS2_NS_9allocatorIS2_EEEEED1Ev
FN:113,_ZNSt3__15stackIN8automate5StateENS_5dequeIS2_NS_9allocatorIS2_EEEEED2Ev
FN:128,_ZNSt3__15stackIN8automate5StateENS_5dequeIS2_NS_9allocatorIS2_EEEEEC2Ev
FN:128,_ZNSt3__15stackIN8automate5StateENS_5dequeIS2_NS_9allocatorIS2_EEEEEC1Ev
FN:191,_ZNKSt3__15stackIN8automate5StateENS_5dequeIS2_NS_9allocatorIS2_EEEEE5emptyEv
FN:193,_ZNKSt3__15stackIN8automate5StateENS_5dequeIS2_NS_9allocatorIS2_EEEEE4sizeEv
FN:195,_ZNSt3__15stackIN8automate5StateENS_5dequeIS2_NS_9allocatorIS2_EEEEE3topEv
FN:200,_ZNSt3__15stackIN8automate5StateENS_5dequeIS2_NS_9allocatorIS2_EEEEE4pushERKS2_
FN:203,_ZNSt3__15stackIN8automate5StateENS_5dequeIS2_NS_9allocatorIS2_EEEEE4pushEOS2_
FN:217,_ZNSt3__15stackIN8automate5StateENS_5dequeIS2_NS_9allocatorIS2_EEEEE3popEv
FNDA:6,_ZNSt3__15stackIN8automate5StateENS_5dequeIS2_NS_9allocatorIS2_EEEEED1Ev
FNDA:6,_ZNSt3__15stackIN8automate5StateENS_5dequeIS2_NS_9allocatorIS2_EEEEED2Ev
FNDA:6,_ZNSt3__15stackIN8automate5StateENS_5dequeIS2_NS_9allocatorIS2_EEEEEC1Ev
FNDA:6,_ZNSt3__15stackIN8automate5StateENS_5dequeIS2_NS_9allocatorIS2_EEEEEC2Ev
FNDA:2,_ZNKSt3__15stackIN8automate5StateENS_5dequeIS2_NS_9allocatorIS2_EEEEE5emptyEv
FNDA:30,_ZNKSt3__15stackIN8automate5StateENS_5dequeIS2_NS_9allocatorIS2_EEEEE4sizeEv
FNDA:46,_ZNSt3__15stackIN8automate5StateENS_5dequeIS2_NS_9allocatorIS2_EEEEE3topEv
FNDA:24,_ZNSt3__15stackIN8automate5StateENS_5dequeIS2_NS_9allocatorIS2_EEEEE4pushERKS2_
FNDA:24,_ZNSt3__15stackIN8automate5StateENS_5dequeIS2_NS_9allocatorIS2_EEEEE4pushEOS2_
FNDA:44,_ZNSt3__15stackIN8automate5StateENS_5dequeIS2_NS_9allocatorIS2_EEEEE3popEv
FNF:10
FNH:10
DA:113,12
DA:128,12
DA:130,12
DA:191,2
DA:193,30
DA:195,46
DA:200,24
DA:203,24
DA:217,44
LF:9
LH:9
end_of_record
SF:/Library/Developer/CommandLineTools/usr/include/c++/v1/stdexcept
FN:136,_ZNSt12length_errorC2EPKc
FN:136,_ZNSt12length_errorC1EPKc
FN:222,_ZNSt3__1L20__throw_length_errorEPKc
FNDA:0,_ZNSt12length_errorC1EPKc
FNDA:0,_ZNSt12length_errorC2EPKc
FNDA:0,_ZNSt3__1L20__throw_length_errorEPKc
FNF:3
FNH:0
BRDA:225,0,0,-
BRDA:225,0,1,-
BRF:2
BRH:0
DA:136,0
DA:222,0
DA:225,0
DA:230,0
LF:4
LH:0
end_of_record
SF:/Library/Developer/CommandLineTools/usr/include/c++/v1/streambuf
FN:221,_ZNSt3__115basic_streambufIcNS_11char_traitsIcEEE5sputcEc
FN:229,_ZNSt3__115basic_streambufIcNS_11char_traitsIcEEE5sputnEPKcl
FN:239,_ZNKSt3__115basic_streambufIcNS_11char_traitsIcEEE5ebackEv
FN:240,_ZNKSt3__115basic_streambufIcNS_11char_traitsIcEEE4gptrEv
FN:241,_ZNKSt3__115basic_streambufIcNS_11char_traitsIcEEE5egptrEv
FN:247,_ZNSt3__115basic_streambufIcNS_11char_traitsIcEEE4setgEPcS4_S4_
FN:254,_ZNKSt3__115basic_streambufIcNS_11char_traitsIcEEE5pbaseEv
FN:255,_ZNKSt3__115basic_streambufIcNS_11char_traitsIcEEE4pptrEv
FN:256,_ZNKSt3__115basic_streambufIcNS_11char_traitsIcEEE5epptrEv
FN:259,_ZNSt3__115basic_streambufIcNS_11char_traitsIcEEE5pbumpEi
FN:262,_ZNSt3__115basic_streambufIcNS_11char_traitsIcEEE7__pbumpEl
FN:265,_ZNSt3__115basic_streambufIcNS_11char_traitsIcEEE4setpEPcS4_
FNDA:63,_ZNSt3__115basic_streambufIcNS_11char_traitsIcEEE5sputcEc
FNDA:383,_ZNSt3__115basic_streambufIcNS_11char_traitsIcEEE5sputnEPKcl
FNDA:63,_ZNKSt3__115basic_streambufIcNS_11char_traitsIcEEE5ebackEv
FNDA:63,_ZNKSt3__115basic_streambufIcNS_11char_traitsIcEEE4gptrEv
FNDA:0,_ZNKSt3__115basic_streambufIcNS_11char_traitsIcEEE5egptrEv
FNDA:63,_ZNSt3__115basic_streambufIcNS_11char_traitsIcEEE4setgEPcS4_S4_
FNDA:244,_ZNKSt3__115basic_streambufIcNS_11char_traitsIcEEE5pbaseEv
FNDA:279,_ZNKSt3__115basic_streambufIcNS_11char_traitsIcEEE4pptrEv
FNDA:63,_ZNKSt3__115basic_streambufIcNS_11char_traitsIcEEE5epptrEv
FNDA:0,_ZNSt3__115basic_streambufIcNS_11char_traitsIcEEE5pbumpEi
FNDA:63,_ZNSt3__115basic_streambufIcNS_11char_traitsIcEEE7__pbumpEl
FNDA:63,_ZNSt3__115basic_streambufIcNS_11char_traitsIcEEE4setpEPcS4_
FNF:12
FNH:10
BRDA:222,0,0,0
BRDA:222,0,1,63
BRF:2
BRH:1
DA:221,63
DA:222,63
DA:223,0
DA:224,63
DA:225,63
DA:226,63
DA:229,383
DA:230,383
DA:239,63
DA:240,63
DA:241,0
DA:247,63
DA:248,63
DA:249,63
DA:250,63
DA:251,63
DA:254,244
DA:255,279
DA:256,63
DA:259,0
DA:262,63
DA:265,63
DA:266,63
DA:267,63
DA:268,63
LF:25
LH:22
end_of_record
SF:/Library/Developer/CommandLineTools/usr/include/c++/v1/string
FN:544,_ZNSt3__14fposI11__mbstate_tEC1Ex
FN:544,_ZNSt3__14fposI11__mbstate_tEC2Ex
FN:546,_ZNKSt3__14fposI11__mbstate_tEcvxEv
FN:818,_ZNSt3__112basic_stringIcNS_11char_traitsIcEENS_9allocatorIcEEEC2IDnEEPKc
FN:818,_ZNSt3__112basic_stringIcNS_11char_traitsIcEENS_9allocatorIcEEEC1IDnEEPKc
FN:912,_ZNKSt3__112basic_stringIcNS_11char_traitsIcEENS_9allocatorIcEEE5beginEv
FN:918,_ZNKSt3__112basic_stringIcNS_11char_traitsIcEENS_9allocatorIcEEE3endEv
FN:947,_ZNKSt3__112basic_stringIcNS_11char_traitsIcEENS_9allocatorIcEEE4sizeEv
FN:951,_ZNKSt3__112basic_stringIcNS_11char_traitsIcEENS_9allocatorIcEEE8capacityEv
FN:956,_ZNSt3__112basic_stringIcNS_11char_traitsIcEENS_9allocatorIcEEE6resizeEm
FN:1241,_ZNKSt3__112basic_stringIcNS_11char_traitsIcEENS_9allocatorIcEEE5c_strEv
FN:1243,_ZNKSt3__112basic_stringIcNS_11char_traitsIcEENS_9allocatorIcEEE4dataEv
FN:1246,_ZNSt3__112basic_stringIcNS_11char_traitsIcEENS_9allocatorIcEEE4dataEv
FN:1250,_ZNKSt3__112basic_stringIcNS_11char_traitsIcEENS_9allocatorIcEEE13get_allocatorEv
FN:1420,_ZNKSt3__112basic_stringIcNS_11char_traitsIcEENS_9allocatorIcEEE9__is_longEv
FN:1434,_ZNSt3__112basic_stringIcNS_11char_traitsIcEENS_9allocatorIcEEE7__allocEv
FN:1437,_ZNKSt3__112basic_stringIcNS_11char_traitsIcEENS_9allocatorIcEEE7__allocEv
FN:1461,_ZNSt3__112basic_stringIcNS_11char_traitsIcEENS_9allocatorIcEEE16__set_short_sizeEm
FN:1469,_ZNKSt3__112basic_stringIcNS_11char_traitsIcEENS_9allocatorIcEEE16__get_short_sizeEv
FN:1479,_ZNSt3__112basic_stringIcNS_11char_traitsIcEENS_9allocatorIcEEE15__set_long_sizeEm
FN:1482,_ZNKSt3__112basic_stringIcNS_11char_traitsIcEENS_9allocatorIcEEE15__get_long_sizeEv
FN:1489,_ZNSt3__112basic_stringIcNS_11char_traitsIcEENS_9allocatorIcEEE14__set_long_capEm
FN:1492,_ZNKSt3__112basic_stringIcNS_11char_traitsIcEENS_9allocatorIcEEE14__get_long_capEv
FN:1496,_ZNSt3__112basic_stringIcNS_11char_traitsIcEENS_9allocatorIcEEE18__set_long_pointerEPc
FN:1499,_ZNSt3__112basic_stringIcNS_11char_traitsIcEENS_9allocatorIcEEE18__get_long_pointerEv
FN:1502,_ZNKSt3__112basic_stringIcNS_11char_traitsIcEENS_9allocatorIcEEE18__get_long_pointerEv
FN:1505,_ZNSt3__112basic_stringIcNS_11char_traitsIcEENS_9allocatorIcEEE19__get_short_pointerEv
FN:1508,_ZNKSt3__112basic_stringIcNS_11char_traitsIcEENS_9allocatorIcEEE19__get_short_pointerEv
FN:1511,_ZNSt3__112basic_stringIcNS_11char_traitsIcEENS_9allocatorIcEEE13__get_pointerEv
FN:1514,_ZNKSt3__112basic_stringIcNS_11char_traitsIcEENS_9allocatorIcEEE13__get_pointerEv
FN:1518,_ZNSt3__112basic_stringIcNS_11char_traitsIcEENS_9allocatorIcEEE6__zeroEv
FN:1527,_ZNSt3__112basic_stringIcNS_11char_traitsIcEENS_9allocatorIcEEE10__align_itILm16EEEmm
FN:1531,_ZNSt3__112basic_stringIcNS_11char_traitsIcEENS_9allocatorIcEEE11__recommendEm
FN:1723,_ZNSt3__112basic_stringIcNS_11char_traitsIcEENS_9allocatorIcEEEC2Ev
FN:1723,_ZNSt3__112basic_stringIcNS_11char_traitsIcEENS_9allocatorIcEEEC1Ev
FN:1734,_ZNSt3__112basic_stringIcNS_11char_traitsIcEENS_9allocatorIcEEEC2ERKS4_
FN:1734,_ZNSt3__112basic_stringIcNS_11char_traitsIcEENS_9allocatorIcEEEC1ERKS4_
FN:1926,_ZNSt3__112basic_stringIcNS_11char_traitsIcEENS_9allocatorIcEEEC1Emc
FN:1926,_ZNSt3__112basic_stringIcNS_11char_traitsIcEENS_9allocatorIcEEEC2Emc
FN:2046,_ZNSt3__112basic_stringIcNS_11char_traitsIcEENS_9allocatorIcEEE6__initIPcEENS_9enable_ifIXsr21__is_forward_iteratorIT_EE5valueEvE4typeES9_S9_
FN:2084,_ZNSt3__112basic_stringIcNS_11char_traitsIcEENS_9allocatorIcEEEC2IPcEET_S8_RKS4_
FN:2084,_ZNSt3__112basic_stringIcNS_11char_traitsIcEENS_9allocatorIcEEEC1IPcEET_S8_RKS4_
FN:3119,_ZNKSt3__112basic_stringIcNS_11char_traitsIcEENS_9allocatorIcEEE8max_sizeEv
FNDA:0,_ZNSt3__14fposI11__mbstate_tEC1Ex
FNDA:0,_ZNSt3__14fposI11__mbstate_tEC2Ex
FNDA:0,_ZNKSt3__14fposI11__mbstate_tEcvxEv
FNDA:12,_ZNSt3__112basic_stringIcNS_11char_traitsIcEENS_9allocatorIcEEEC1IDnEEPKc
FNDA:12,_ZNSt3__112basic_stringIcNS_11char_traitsIcEENS_9allocatorIcEEEC2IDnEEPKc
FNDA:6,_ZNKSt3__112basic_stringIcNS_11char_traitsIcEENS_9allocatorIcEEE5beginEv
FNDA:6,_ZNKSt3__112basic_stringIcNS_11char_traitsIcEENS_9allocatorIcEEE3endEv
FNDA:69,_ZNKSt3__112basic_stringIcNS_11char_traitsIcEENS_9allocatorIcEEE4sizeEv
FNDA:63,_ZNKSt3__112basic_stringIcNS_11char_traitsIcEENS_9allocatorIcEEE8capacityEv
FNDA:63,_ZNSt3__112basic_stringIcNS_11char_traitsIcEENS_9allocatorIcEEE6resizeEm
FNDA:0,_ZNKSt3__112basic_stringIcNS_11char_traitsIcEENS_9allocatorIcEEE5c_strEv
FNDA:0,_ZNKSt3__112basic_stringIcNS_11char_traitsIcEENS_9allocatorIcEEE4dataEv
FNDA:126,_ZNSt3__112basic_stringIcNS_11char_traitsIcEENS_9allocatorIcEEE4dataEv
FNDA:55,_ZNKSt3__112basic_stringIcNS_11char_traitsIcEENS_9allocatorIcEEE13get_allocatorEv
FNDA:270,_ZNKSt3__112basic_stringIcNS_11char_traitsIcEENS_9allocatorIcEEE9__is_longEv
FNDA:8,_ZNSt3__112basic_stringIcNS_11char_traitsIcEENS_9allocatorIcEEE7__allocEv
FNDA:110,_ZNKSt3__112basic_stringIcNS_11char_traitsIcEENS_9allocatorIcEEE7__allocEv
FNDA:47,_ZNSt3__112basic_stringIcNS_11char_traitsIcEENS_9allocatorIcEEE16__set_short_sizeEm
FNDA:59,_ZNKSt3__112basic_stringIcNS_11char_traitsIcEENS_9allocatorIcEEE16__get_short_sizeEv
FNDA:8,_ZNSt3__112basic_stringIcNS_11char_traitsIcEENS_9allocatorIcEEE15__set_long_sizeEm
FNDA:10,_ZNKSt3__112basic_stringIcNS_11char_traitsIcEENS_9allocatorIcEEE15__get_long_sizeEv
FNDA:8,_ZNSt3__112basic_stringIcNS_11char_traitsIcEENS_9allocatorIcEEE14__set_long_capEm
FNDA:8,_ZNKSt3__112basic_stringIcNS_11char_traitsIcEENS_9allocatorIcEEE14__get_long_capEv
FNDA:8,_ZNSt3__112basic_stringIcNS_11char_traitsIcEENS_9allocatorIcEEE18__set_long_pointerEPc
FNDA:16,_ZNSt3__112basic_stringIcNS_11char_traitsIcEENS_9allocatorIcEEE18__get_long_pointerEv
FNDA:4,_ZNKSt3__112basic_stringIcNS_11char_traitsIcEENS_9allocatorIcEEE18__get_long_pointerEv
FNDA:157,_ZNSt3__112basic_stringIcNS_11char_traitsIcEENS_9allocatorIcEEE19__get_short_pointerEv
FNDA:8,_ZNKSt3__112basic_stringIcNS_11char_traitsIcEENS_9allocatorIcEEE19__get_short_pointerEv
FNDA:126,_ZNSt3__112basic_stringIcNS_11char_traitsIcEENS_9allocatorIcEEE13__get_pointerEv
FNDA:12,_ZNKSt3__112basic_stringIcNS_11char_traitsIcEENS_9allocatorIcEEE13__get_pointerEv
FNDA:0,_ZNSt3__112basic_stringIcNS_11char_traitsIcEENS_9allocatorIcEEE6__zeroEv
FNDA:8,_ZNSt3__112basic_stringIcNS_11char_traitsIcEENS_9allocatorIcEEE10__align_itILm16EEEmm
FNDA:8,_ZNSt3__112basic_stringIcNS_11char_traitsIcEENS_9allocatorIcEEE11__recommendEm
FNDA:0,_ZNSt3__112basic_stringIcNS_11char_traitsIcEENS_9allocatorIcEEEC1Ev
FNDA:0,_ZNSt3__112basic_stringIcNS_11char_traitsIcEENS_9allocatorIcEEEC2Ev
FNDA:0,_ZNSt3__112basic_stringIcNS_11char_traitsIcEENS_9allocatorIcEEEC1ERKS4_
FNDA:0,_ZNSt3__112basic_stringIcNS_11char_traitsIcEENS_9allocatorIcEEEC2ERKS4_
FNDA:0,_ZNSt3__112basic_stringIcNS_11char_traitsIcEENS_9allocatorIcEEEC1Emc
FNDA:0,_ZNSt3__112basic_stringIcNS_11char_traitsIcEENS_9allocatorIcEEEC2Emc
FNDA:55,_ZNSt3__112basic_stringIcNS_11char_traitsIcEENS_9allocatorIcEEE6__initIPcEENS_9enable_ifIXsr21__is_forward_iteratorIT_EE5valueEvE4typeES9_S9_
FNDA:55,_ZNSt3__112basic_stringIcNS_11char_traitsIcEENS_9allocatorIcEEEC1IPcEET_S8_RKS4_
FNDA:55,_ZNSt3__112basic_stringIcNS_11char_traitsIcEENS_9allocatorIcEEEC2IPcEET_S8_RKS4_
FNDA:55,_ZNKSt3__112basic_stringIcNS_11char_traitsIcEENS_9allocatorIcEEE8max_sizeEv
FNF:43
FNH:31
BRDA:790,0,0,-
BRDA:790,0,1,-
BRDA:948,0,0,10
BRDA:948,0,1,59
BRDA:952,0,0,8
BRDA:952,0,1,55
BRDA:1512,0,0,16
BRDA:1512,0,1,110
BRDA:1515,0,0,4
BRDA:1515,0,1,8
BRDA:1521,1,0,-
BRDA:1521,1,1,-
BRDA:1533,0,0,0
BRDA:1533,0,1,8
BRDA:1536,0,0,0
BRDA:1536,0,1,8
BRDA:1740,0,0,-
BRDA:1740,0,1,-
BRDA:2049,0,0,0
BRDA:2049,0,1,55
BRDA:2052,0,0,47
BRDA:2052,0,1,8
BRDA:2065,1,0,716
BRDA:2065,1,1,55
BRF:24
BRH:15
DA:544,0
DA:546,0
DA:790,0
DA:818,24
DA:820,12
DA:824,24
DA:835,0
DA:912,6
DA:913,6
DA:918,6
DA:919,6
DA:947,69
DA:948,69
DA:951,63
DA:952,63
DA:953,63
DA:956,63
DA:1241,0
DA:1243,0
DA:1246,126
DA:1250,55
DA:1420,270
DA:1421,270
DA:1434,8
DA:1435,8
DA:1437,110
DA:1438,110
DA:1461,47
DA:1465,47
DA:1469,59
DA:1473,59
DA:1479,8
DA:1480,8
DA:1482,10
DA:1483,10
DA:1489,8
DA:1490,8
DA:1492,8
DA:1493,8
DA:1496,8
DA:1497,8
DA:1499,16
DA:1500,16
DA:1502,4
DA:1503,4
DA:1505,157
DA:1506,157
DA:1508,8
DA:1509,8
DA:1511,126
DA:1512,126
DA:1514,12
DA:1515,12
DA:1518,0
DA:1520,0
DA:1521,0
DA:1522,0
DA:1523,0
DA:1527,8
DA:1528,8
DA:1531,8
DA:1533,8
DA:1534,16
DA:1535,16
DA:1536,8
DA:1537,8
DA:1538,8
DA:1723,0
DA:1725,0
DA:1729,0
DA:1730,0
DA:1734,0
DA:1740,0
DA:1741,0
DA:1745,0
DA:1746,0
DA:1926,0
DA:1927,0
DA:1928,0
DA:1932,0
DA:2046,55
DA:2048,55
DA:2049,55
DA:2050,0
DA:2052,55
DA:2054,47
DA:2055,47
DA:2056,47
DA:2059,8
DA:2060,8
DA:2061,8
DA:2062,8
DA:2063,8
DA:2065,771
DA:2066,716
DA:2067,55
DA:2068,55
DA:2084,110
DA:2086,55
DA:2087,110
DA:2088,55
DA:2092,110
DA:3119,55
DA:3121,55
DA:3125,55
LF:105
LH:80
end_of_record
SF:/Library/Developer/CommandLineTools/usr/include/c++/v1/type_traits
FN:454,_ZNSt3__1L9addressofIKcEEPT_RS2_
FN:454,_ZNSt3__1L9addressofIN8automate5StateEEEPT_RS3_
FN:454,_ZNSt3__1L9addressofIcEEPT_RS1_
FN:2310,_ZNSt3__1L4moveIRPPN8automate5StateEEEONS_16remove_referenceIT_E4typeEOS7_
FN:2310,_ZNSt3__1L4moveIRN8automate5StateEEEONS_16remove_referenceIT_E4typeEOS5_
FN:2310,_ZNSt3__1L4moveIRNS_22__allocator_destructorINS_9allocatorIN8automate5StateEEEEEEEONS_16remove_referenceIT_E4typeEOS9_
FN:2310,_ZNSt3__1L4moveIRmEEONS_16remove_referenceIT_E4typeEOS3_
FN:2310,_ZNSt3__1L4moveIRPN8automate5StateEEEONS_16remove_referenceIT_E4typeEOS6_
FN:2310,_ZNSt3__1L4moveIRNS_9allocatorImEEEEONS_16remove_referenceIT_E4typeEOS5_
FN:2319,_ZNSt3__1L7forwardIRKNS_9allocatorIcEEEEOT_RNS_16remove_referenceIS5_E4typeE
FN:2319,_ZNSt3__1L7forwardIRPN8automate5StateEEEOT_RNS_16remove_referenceIS5_E4typeE
FN:2319,_ZNSt3__1L7forwardIDnEEOT_RNS_16remove_referenceIS1_E4typeE
FN:2319,_ZNSt3__1L7forwardIRNS_9allocatorIPN8automate5StateEEEEEOT_RNS_16remove_referenceIS7_E4typeE
FN:2319,_ZNSt3__1L7forwardIRKPN8automate5StateEEEOT_RNS_16remove_referenceIS6_E4typeE
FN:2319,_ZNSt3__1L7forwardINS_9allocatorImEEEEOT_RNS_16remove_referenceIS3_E4typeE
FN:2319,_ZNSt3__1L7forwardIRmEEOT_RNS_16remove_referenceIS2_E4typeE
FN:2319,_ZNSt3__1L7forwardIiEEOT_RNS_16remove_referenceIS1_E4typeE
FN:2319,_ZNSt3__1L7forwardINS_22__allocator_destructorINS_9allocatorIN8automate5StateEEEEEEEOT_RNS_16remove_referenceIS7_E4typeE
FN:2319,_ZNSt3__1L7forwardIN8automate5StateEEEOT_RNS_16remove_referenceIS3_E4typeE
FN:2319,_ZNSt3__1L7forwardIPN8automate5StateEEEOT_RNS_16remove_referenceIS4_E4typeE
FN:2319,_ZNSt3__1L7forwardIRKN8automate5StateEEEOT_RNS_16remove_referenceIS5_E4typeE
FN:4523,_ZNSt3__1L4swapIPPN8automate5StateEEENS_9enable_ifIXaasr21is_move_constructibleIT_EE5valuesr18is_move_assignableIS6_EE5valueEvE4typeERS6_S9_
FNDA:52,_ZNSt3__1L9addressofIN8automate5StateEEEPT_RS3_
FNDA:8,_ZNSt3__1L9addressofIKcEEPT_RS2_
FNDA:157,_ZNSt3__1L9addressofIcEEPT_RS1_
FNDA:118,_ZNSt3__1L4moveIRNS_9allocatorImEEEEONS_16remove_referenceIT_E4typeEOS5_
FNDA:2,_ZNSt3__1L4moveIRmEEONS_16remove_referenceIT_E4typeEOS3_
FNDA:3,_ZNSt3__1L4moveIRPN8automate5StateEEEONS_16remove_referenceIT_E4typeEOS6_
FNDA:3,_ZNSt3__1L4moveIRNS_22__allocator_destructorINS_9allocatorIN8automate5StateEEEEEEEONS_16remove_referenceIT_E4typeEOS9_
FNDA:36,_ZNSt3__1L4moveIRPPN8automate5StateEEEONS_16remove_referenceIT_E4typeEOS7_
FNDA:48,_ZNSt3__1L4moveIRN8automate5StateEEEONS_16remove_referenceIT_E4typeEOS5_
FNDA:4,_ZNSt3__1L7forwardIRmEEOT_RNS_16remove_referenceIS2_E4typeE
FNDA:206,_ZNSt3__1L7forwardIDnEEOT_RNS_16remove_referenceIS1_E4typeE
FNDA:188,_ZNSt3__1L7forwardINS_9allocatorImEEEEOT_RNS_16remove_referenceIS3_E4typeE
FNDA:12,_ZNSt3__1L7forwardIiEEOT_RNS_16remove_referenceIS1_E4typeE
FNDA:9,_ZNSt3__1L7forwardIPN8automate5StateEEEOT_RNS_16remove_referenceIS4_E4typeE
FNDA:0,_ZNSt3__1L7forwardIRKPN8automate5StateEEEOT_RNS_16remove_referenceIS6_E4typeE
FNDA:6,_ZNSt3__1L7forwardIRNS_9allocatorIPN8automate5StateEEEEEOT_RNS_16remove_referenceIS7_E4typeE
FNDA:6,_ZNSt3__1L7forwardIRPN8automate5StateEEEOT_RNS_16remove_referenceIS5_E4typeE
FNDA:6,_ZNSt3__1L7forwardINS_22__allocator_destructorINS_9allocatorIN8automate5StateEEEEEEEOT_RNS_16remove_referenceIS7_E4typeE
FNDA:72,_ZNSt3__1L7forwardIRKN8automate5StateEEEOT_RNS_16remove_referenceIS5_E4typeE
FNDA:72,_ZNSt3__1L7forwardIN8automate5StateEEEOT_RNS_16remove_referenceIS3_E4typeE
FNDA:110,_ZNSt3__1L7forwardIRKNS_9allocatorIcEEEEOT_RNS_16remove_referenceIS5_E4typeE
FNDA:12,_ZNSt3__1L4swapIPPN8automate5StateEEENS_9enable_ifIXaasr21is_move_constructibleIT_EE5valuesr18is_move_assignableIS6_EE5valueEvE4typeERS6_S9_
FNF:22
FNH:21
DA:454,217
DA:456,217
DA:2310,210
DA:2313,210
DA:2319,691
DA:2321,691
DA:4523,12
DA:4526,12
DA:4527,12
DA:4528,12
DA:4529,12
LF:11
LH:11
end_of_record
SF:/Library/Developer/CommandLineTools/usr/include/c++/v1/vector
FN:304,_ZNSt3__120__vector_base_commonILb1EEC2Ev
FN:348,_ZNSt3__113__vector_baseImNS_9allocatorImEEE7__allocEv
FN:351,_ZNKSt3__113__vector_baseImNS_9allocatorImEEE7__allocEv
FN:354,_ZNSt3__113__vector_baseImNS_9allocatorImEEE9__end_capEv
FN:357,_ZNKSt3__113__vector_baseImNS_9allocatorImEEE9__end_capEv
FN:370,_ZNSt3__113__vector_baseImNS_9allocatorImEEE5clearEv
FN:372,_ZNKSt3__113__vector_baseImNS_9allocatorImEEE8capacityEv
FN:379,_ZNSt3__113__vector_baseImNS_9allocatorImEEE19__copy_assign_allocERKS3_
FN:404,_ZNSt3__113__vector_baseImNS_9allocatorImEEE19__copy_assign_allocERKS3_NS_17integral_constantIbLb0EEE
FN:423,_ZNSt3__113__vector_baseImNS_9allocatorImEEE17__destruct_at_endEPm
FN:453,_ZNSt3__113__vector_baseImNS_9allocatorImEEEC2EOS2_
FN:460,_ZNSt3__113__vector_baseImNS_9allocatorImEEED2Ev
FN:550,_ZNSt3__16vectorImNS_9allocatorImEEED2Ev
FN:550,_ZNSt3__16vectorImNS_9allocatorImEEED1Ev
FN:656,_ZNKSt3__16vectorImNS_9allocatorImEEE4sizeEv
FN:659,_ZNKSt3__16vectorImNS_9allocatorImEEE8capacityEv
FN:698,_ZNKSt3__16vectorImNS_9allocatorImEEE4dataEv
FN:770,_ZNSt3__16vectorImNS_9allocatorImEEE5clearEv
FN:830,_ZNSt3__16vectorImNS_9allocatorImEEE17__destruct_at_endEPm
FN:862,_ZNKSt3__16vectorImNS_9allocatorImEEE31__annotate_contiguous_containerEPKvS5_S5_S5_
FN:866,_ZNKSt3__16vectorImNS_9allocatorImEEE14__annotate_newEm
FN:872,_ZNKSt3__16vectorImNS_9allocatorImEEE17__annotate_deleteEv
FN:885,_ZNKSt3__16vectorImNS_9allocatorImEEE17__annotate_shrinkEm
FN:910,_ZNSt3__16vectorImNS_9allocatorImEEE24__RAII_IncreaseAnnotatorC2ERKS3_m
FN:910,_ZNSt3__16vectorImNS_9allocatorImEEE24__RAII_IncreaseAnnotatorC1ERKS3_m
FN:911,_ZNSt3__16vectorImNS_9allocatorImEEE24__RAII_IncreaseAnnotator6__doneEv
FN:973,_ZNSt3__16vectorImNS_9allocatorImEEE11__vallocateEm
FN:984,_ZNSt3__16vectorImNS_9allocatorImEEE13__vdeallocateEv
FN:996,_ZNKSt3__16vectorImNS_9allocatorImEEE8max_sizeEv
FN:1006,_ZNKSt3__16vectorImNS_9allocatorImEEE11__recommendEm
FN:1066,_ZNSt3__16vectorImNS_9allocatorImEEE18__construct_at_endIPmEENS_9enable_ifIXsr21__is_forward_iteratorIT_EE5valueEvE4typeES7_S7_m
FN:1243,_ZNSt3__16vectorImNS_9allocatorImEEEC2ERKS3_
FN:1243,_ZNSt3__16vectorImNS_9allocatorImEEEC1ERKS3_
FN:1276,_ZNSt3__16vectorImNS_9allocatorImEEEC1EOS3_
FN:1276,_ZNSt3__16vectorImNS_9allocatorImEEEC2EOS3_
FN:1394,_ZNSt3__16vectorImNS_9allocatorImEEEaSERKS3_
FN:1432,_ZNSt3__16vectorImNS_9allocatorImEEE6assignIPmEENS_9enable_ifIXaasr21__is_forward_iteratorIT_EE5valuesr16is_constructibleImNS_15iterator_traitsIS7_E9referenceEEE5valueEvE4typeES7_S7_
FN:2146,_ZNSt3__16vectorImNS_9allocatorImEEE26__invalidate_all_iteratorsEv
FN:2157,_ZNSt3__16vectorImNS_9allocatorImEEE27__invalidate_iterators_pastEPm
FNDA:94,_ZNSt3__120__vector_base_commonILb1EEC2Ev
FNDA:812,_ZNSt3__113__vector_baseImNS_9allocatorImEEE7__allocEv
FNDA:212,_ZNKSt3__113__vector_baseImNS_9allocatorImEEE7__allocEv
FNDA:214,_ZNSt3__113__vector_baseImNS_9allocatorImEEE9__end_capEv
FNDA:766,_ZNKSt3__113__vector_baseImNS_9allocatorImEEE9__end_capEv
FNDA:118,_ZNSt3__113__vector_baseImNS_9allocatorImEEE5clearEv
FNDA:766,_ZNKSt3__113__vector_baseImNS_9allocatorImEEE8capacityEv
FNDA:40,_ZNSt3__113__vector_baseImNS_9allocatorImEEE19__copy_assign_allocERKS3_
FNDA:40,_ZNSt3__113__vector_baseImNS_9allocatorImEEE19__copy_assign_allocERKS3_NS_17integral_constantIbLb0EEE
FNDA:158,_ZNSt3__113__vector_baseImNS_9allocatorImEEE17__destruct_at_endEPm
FNDA:94,_ZNSt3__113__vector_baseImNS_9allocatorImEEEC2EOS2_
FNDA:142,_ZNSt3__113__vector_baseImNS_9allocatorImEEED2Ev
FNDA:142,_ZNSt3__16vectorImNS_9allocatorImEEED1Ev
FNDA:142,_ZNSt3__16vectorImNS_9allocatorImEEED2Ev
FNDA:332,_ZNKSt3__16vectorImNS_9allocatorImEEE4sizeEv
FNDA:648,_ZNKSt3__16vectorImNS_9allocatorImEEE8capacityEv
FNDA:1296,_ZNKSt3__16vectorImNS_9allocatorImEEE4dataEv
FNDA:0,_ZNSt3__16vectorImNS_9allocatorImEEE5clearEv
FNDA:40,_ZNSt3__16vectorImNS_9allocatorImEEE17__destruct_at_endEPm
FNDA:324,_ZNKSt3__16vectorImNS_9allocatorImEEE31__annotate_contiguous_containerEPKvS5_S5_S5_
FNDA:142,_ZNKSt3__16vectorImNS_9allocatorImEEE14__annotate_newEm
FNDA:142,_ZNKSt3__16vectorImNS_9allocatorImEEE17__annotate_deleteEv
FNDA:40,_ZNKSt3__16vectorImNS_9allocatorImEEE17__annotate_shrinkEm
FNDA:118,_ZNSt3__16vectorImNS_9allocatorImEEE24__RAII_IncreaseAnnotatorC1ERKS3_m
FNDA:118,_ZNSt3__16vectorImNS_9allocatorImEEE24__RAII_IncreaseAnnotatorC2ERKS3_m
FNDA:118,_ZNSt3__16vectorImNS_9allocatorImEEE24__RAII_IncreaseAnnotator6__doneEv
FNDA:142,_ZNSt3__16vectorImNS_9allocatorImEEE11__vallocateEm
FNDA:0,_ZNSt3__16vectorImNS_9allocatorImEEE13__vdeallocateEv
FNDA:142,_ZNKSt3__16vectorImNS_9allocatorImEEE8max_sizeEv
FNDA:0,_ZNKSt3__16vectorImNS_9allocatorImEEE11__recommendEm
FNDA:118,_ZNSt3__16vectorImNS_9allocatorImEEE18__construct_at_endIPmEENS_9enable_ifIXsr21__is_forward_iteratorIT_EE5valueEvE4typeES7_S7_m
FNDA:70,_ZNSt3__16vectorImNS_9allocatorImEEEC1ERKS3_
FNDA:70,_ZNSt3__16vectorImNS_9allocatorImEEEC2ERKS3_
FNDA:24,_ZNSt3__16vectorImNS_9allocatorImEEEC1EOS3_
FNDA:24,_ZNSt3__16vectorImNS_9allocatorImEEEC2EOS3_
FNDA:40,_ZNSt3__16vectorImNS_9allocatorImEEEaSERKS3_
FNDA:40,_ZNSt3__16vectorImNS_9allocatorImEEE6assignIPmEENS_9enable_ifIXaasr21__is_forward_iteratorIT_EE5valuesr16is_constructibleImNS_15iterator_traitsIS7_E9referenceEEE5valueEvE4typeES7_S7_
FNDA:40,_ZNSt3__16vectorImNS_9allocatorImEEE26__invalidate_all_iteratorsEv
FNDA:40,_ZNSt3__16vectorImNS_9allocatorImEEE27__invalidate_iterators_pastEPm
FNF:39
FNH:36
BRDA:365,0,0,94
BRDA:365,0,1,0
BRDA:426,1,0,410
BRDA:426,1,1,158
BRDA:427,0,0,410
BRDA:427,0,1,0
BRDA:456,0,0,94
BRDA:456,0,1,0
BRDA:462,0,0,118
BRDA:462,0,1,24
BRDA:552,0,0,142
BRDA:552,0,1,0
BRDA:774,0,0,-
BRDA:774,0,1,-
BRDA:775,0,0,-
BRDA:775,0,1,-
BRDA:832,0,0,40
BRDA:832,0,1,0
BRDA:835,0,0,40
BRDA:835,0,1,0
BRDA:975,0,0,0
BRDA:975,0,1,142
BRDA:986,0,0,-
BRDA:986,0,1,-
BRDA:998,0,0,142
BRDA:998,0,1,0
BRDA:998,1,2,142
BRDA:998,1,3,0
BRDA:1009,0,0,-
BRDA:1009,0,1,-
BRDA:1012,0,0,-
BRDA:1012,0,1,-
BRDA:1250,0,0,70
BRDA:1250,0,1,0
BRDA:1252,0,0,70
BRDA:1252,0,1,0
BRDA:1253,0,0,70
BRDA:1253,0,1,0
BRDA:1396,0,0,40
BRDA:1396,0,1,0
BRDA:1435,0,0,40
BRDA:1435,0,1,0
BRDA:1439,0,0,0
BRDA:1439,0,1,40
BRDA:1446,0,0,0
BRDA:1446,0,1,40
BRF:46
BRH:20
DA:304,94
DA:348,812
DA:349,812
DA:351,212
DA:352,212
DA:354,214
DA:355,214
DA:357,766
DA:358,766
DA:365,94
DA:370,118
DA:372,766
DA:373,766
DA:379,40
DA:380,40
DA:381,40
DA:404,40
DA:405,40
DA:423,158
DA:425,158
DA:426,568
DA:427,410
DA:428,158
DA:429,158
DA:453,94
DA:454,94
DA:455,94
DA:456,94
DA:460,142
DA:462,142
DA:464,118
DA:465,118
DA:466,118
DA:467,142
DA:550,284
DA:551,142
DA:552,142
DA:556,284
DA:656,332
DA:657,332
DA:659,648
DA:660,648
DA:698,1296
DA:699,1296
DA:770,0
DA:772,0
DA:773,0
DA:774,0
DA:775,0
DA:776,0
DA:830,40
DA:832,40
DA:833,40
DA:834,40
DA:835,40
DA:836,40
DA:862,324
DA:863,324
DA:866,142
DA:867,284
DA:868,142
DA:869,142
DA:872,142
DA:873,284
DA:874,142
DA:875,142
DA:885,40
DA:887,80
DA:888,40
DA:889,40
DA:910,236
DA:911,118
DA:973,142
DA:975,142
DA:976,0
DA:977,142
DA:978,142
DA:979,142
DA:980,142
DA:984,0
DA:986,0
DA:988,0
DA:989,0
DA:990,0
DA:991,0
DA:992,0
DA:996,142
DA:998,284
DA:999,142
DA:1006,0
DA:1008,0
DA:1009,0
DA:1010,0
DA:1011,0
DA:1012,0
DA:1013,0
DA:1014,0
DA:1015,0
DA:1066,118
DA:1068,118
DA:1069,118
DA:1070,118
DA:1071,118
DA:1072,118
DA:1243,140
DA:1244,70
DA:1245,140
DA:1249,70
DA:1250,70
DA:1252,70
DA:1253,70
DA:1254,70
DA:1255,140
DA:1276,48
DA:1282,24
DA:1283,48
DA:1288,24
DA:1289,24
DA:1290,24
DA:1291,24
DA:1292,48
DA:1394,40
DA:1396,40
DA:1398,40
DA:1399,40
DA:1400,40
DA:1401,40
DA:1432,40
DA:1434,40
DA:1435,40
DA:1437,40
DA:1438,40
DA:1439,40
DA:1441,0
DA:1442,0
DA:1443,0
DA:1444,0
DA:1445,40
DA:1446,40
DA:1447,0
DA:1449,40
DA:1450,40
DA:1453,0
DA:1454,0
DA:1455,0
DA:1457,40
DA:1458,40
DA:2146,40
DA:2151,40
DA:2157,40
DA:2173,40
LF:151
LH:120
end_of_record
SF:/Users/daniilgagarinov/GitReps/FormalLanguagesPracticum/AutomataLibrary/Automate.cpp
FN:6,_ZN8automate8Automate15GetShortestWordERKNSt3__112basic_stringIcNS1_11char_traitsIcEENS1_9allocatorIcEEEEci
FN:12,_ZN8automate8Automate13ProcessRegexpERKNSt3__112basic_stringIcNS1_11char_traitsIcEENS1_9allocatorIcEEEEci
FNDA:6,_ZN8automate8Automate15GetShortestWordERKNSt3__112basic_stringIcNS1_11char_traitsIcEENS1_9allocatorIcEEEEci
FNDA:6,_ZN8automate8Automate13ProcessRegexpERKNSt3__112basic_stringIcNS1_11char_traitsIcEENS1_9allocatorIcEEEEci
FNF:2
FNH:2
BRDA:9,0,0,2
BRDA:9,0,1,0
BRDA:9,1,2,2
BRDA:9,1,3,0
BRDA:17,1,0,65
BRDA:17,1,1,3
BRDA:18,0,0,6
BRDA:18,0,1,16
BRDA:18,0,2,5
BRDA:18,0,3,14
BRDA:18,0,4,24
BRDA:20,0,0,6
BRDA:20,0,1,0
BRDA:20,1,2,1
BRDA:20,1,3,5
BRDA:21,0,0,1
BRDA:21,0,1,0
BRDA:24,0,0,0
BRDA:24,0,1,5
BRDA:24,1,2,0
BRDA:24,1,3,5
BRDA:25,0,0,5
BRDA:25,0,1,0
BRDA:26,0,0,5
BRDA:26,0,1,0
BRDA:26,1,2,5
BRDA:26,1,3,0
BRDA:27,0,0,5
BRDA:27,0,1,0
BRDA:29,0,0,5
BRDA:29,0,1,0
BRDA:29,1,2,5
BRDA:29,1,3,0
BRDA:31,0,0,5
BRDA:31,0,1,0
BRDA:35,0,0,0
BRDA:35,0,1,16
BRDA:35,1,2,1
BRDA:35,1,3,15
BRDA:36,0,0,1
BRDA:36,0,1,0
BRDA:39,0,0,0
BRDA:39,0,1,15
BRDA:39,1,2,0
BRDA:39,1,3,15
BRDA:40,0,0,15
BRDA:40,0,1,0
BRDA:41,0,0,15
BRDA:41,0,1,0
BRDA:41,1,2,15
BRDA:41,1,3,0
BRDA:42,0,0,15
BRDA:42,0,1,0
BRDA:44,0,0,15
BRDA:44,0,1,0
BRDA:44,1,2,15
BRDA:44,1,3,0
BRDA:46,0,0,15
BRDA:46,0,1,0
BRDA:50,0,0,0
BRDA:50,0,1,5
BRDA:50,1,2,1
BRDA:50,1,3,4
BRDA:51,0,0,1
BRDA:51,0,1,0
BRDA:54,0,0,0
BRDA:54,0,1,4
BRDA:54,1,2,0
BRDA:54,1,3,4
BRDA:55,0,0,4
BRDA:55,0,1,0
BRDA:57,0,0,4
BRDA:57,0,1,0
BRDA:57,1,2,4
BRDA:57,1,3,0
BRDA:64,0,0,0
BRDA:64,0,1,24
BRDA:64,1,2,24
BRDA:64,1,3,0
BRDA:70,0,0,0
BRDA:70,0,1,3
BRDA:70,1,2,2
BRDA:70,1,3,1
BRDA:70,2,4,0
BRDA:70,2,5,2
BRDA:70,3,6,0
BRDA:70,3,7,2
BRDA:71,0,0,1
BRDA:71,0,1,0
BRDA:74,0,0,0
BRDA:74,0,1,2
BRDA:74,1,2,0
BRDA:74,1,3,2
BRF:93
BRH:54
DA:6,6
DA:7,6
DA:9,6
DA:10,2
DA:12,6
DA:15,6
DA:17,68
DA:18,65
DA:20,6
DA:21,1
DA:24,5
DA:25,5
DA:26,5
DA:27,5
DA:29,5
DA:31,5
DA:33,5
DA:35,16
DA:36,1
DA:39,15
DA:40,15
DA:41,15
DA:42,15
DA:44,15
DA:46,15
DA:48,15
DA:50,5
DA:51,1
DA:54,4
DA:55,4
DA:57,4
DA:59,4
DA:61,14
DA:64,24
DA:67,24
DA:70,3
DA:71,1
DA:74,2
DA:75,6
LF:39
LH:39
end_of_record
SF:/Users/daniilgagarinov/GitReps/FormalLanguagesPracticum/AutomataLibrary/Automate.hpp
FN:11,_ZN8automate15IncorrectRegexpD0Ev
FN:11,_ZN8automate15IncorrectRegexpD1Ev
FN:11,_ZN8automate15IncorrectRegexpD2Ev
FN:11,_ZN8automate15IncorrectRegexpC1Ev
FN:11,_ZN8automate15IncorrectRegexpC2Ev
FN:12,_ZNK8automate15IncorrectRegexp4whatEv
FNDA:4,_ZN8automate15IncorrectRegexpC1Ev
FNDA:4,_ZN8automate15IncorrectRegexpD1Ev
FNDA:4,_ZN8automate15IncorrectRegexpC2Ev
FNDA:0,_ZN8automate15IncorrectRegexpD0Ev
FNDA:4,_ZN8automate15IncorrectRegexpD2Ev
FNDA:0,_ZNK8automate15IncorrectRegexp4whatEv
FNF:6
FNH:4
DA:11,16
DA:12,0
DA:13,0
LF:3
LH:1
end_of_record
SF:/Users/daniilgagarinov/GitReps/FormalLanguagesPracticum/AutomataLibrary/State.hpp
FN:15,_ZN8automate5StateD2Ev
FN:15,_ZN8automate5StateD1Ev
FN:22,_ZN8automate5StateC1ERKS0_
FN:22,_ZN8automate5StateC2ERKS0_
FN:23,_ZN8automate5StateC2EOS0_
FN:23,_ZN8automate5StateC1EOS0_
FN:24,_ZN8automate5StateaSERKS0_
FNDA:142,_ZN8automate5StateD1Ev
FNDA:142,_ZN8automate5StateD2Ev
FNDA:70,_ZN8automate5StateC1ERKS0_
FNDA:70,_ZN8automate5StateC2ERKS0_
FNDA:24,_ZN8automate5StateC1EOS0_
FNDA:24,_ZN8automate5StateC2EOS0_
FNDA:40,_ZN8automate5StateaSERKS0_
FNF:7
FNH:7
DA:15,284
DA:22,140
DA:23,48
DA:24,40
LF:4
LH:4
end_of_record
SF:/Users/daniilgagarinov/GitReps/FormalLanguagesPracticum/tests.cpp
FN:6,_ZN26TEST_FROM_PASHA_FIRST_TestC1Ev
FN:6,_ZN26TEST_FROM_PASHA_FIRST_TestD0Ev
FN:6,_ZN26TEST_FROM_PASHA_FIRST_TestD2Ev
FN:6,_ZN26TEST_FROM_PASHA_FIRST_TestD1Ev
FN:6,_ZN26TEST_FROM_PASHA_FIRST_TestC2Ev
FN:6,_ZN26TEST_FROM_PASHA_FIRST_Test8TestBodyEv
FN:6,__cxx_global_var_init
FN:13,__cxx_global_var_init.6
FN:13,_ZN27TEST_FROM_PASHA_SECOND_TestD2Ev
FN:13,_ZN27TEST_FROM_PASHA_SECOND_Test8TestBodyEv
FN:13,_ZN27TEST_FROM_PASHA_SECOND_TestC2Ev
FN:13,_ZN27TEST_FROM_PASHA_SECOND_TestD1Ev
FN:13,_ZN27TEST_FROM_PASHA_SECOND_TestD0Ev
FN:13,_ZN27TEST_FROM_PASHA_SECOND_TestC1Ev
FN:20,__cxx_global_var_init.10
FN:20,_ZN26EXCEPTIONS_STACK_SIZE_TestD0Ev
FN:20,_ZN26EXCEPTIONS_STACK_SIZE_TestC1Ev
FN:20,_ZN26EXCEPTIONS_STACK_SIZE_TestD1Ev
FN:20,_ZN26EXCEPTIONS_STACK_SIZE_TestC2Ev
FN:20,_ZN26EXCEPTIONS_STACK_SIZE_Test8TestBodyEv
FN:20,_ZN26EXCEPTIONS_STACK_SIZE_TestD2Ev
FN:26,_ZN40EXCEPTIONS_MISSING_OPERANDS_CLOSURE_TestC1Ev
FN:26,_ZN40EXCEPTIONS_MISSING_OPERANDS_CLOSURE_Test8TestBodyEv
FN:26,_ZN40EXCEPTIONS_MISSING_OPERANDS_CLOSURE_TestD0Ev
FN:26,_ZN40EXCEPTIONS_MISSING_OPERANDS_CLOSURE_TestD2Ev
FN:26,_ZN40EXCEPTIONS_MISSING_OPERANDS_CLOSURE_TestD1Ev
FN:26,__cxx_global_var_init.15
FN:26,_ZN40EXCEPTIONS_MISSING_OPERANDS_CLOSURE_TestC2Ev
FN:32,_ZN44EXCEPTIONS_MISSING_OPERANDS_DISJUNCTION_TestC2Ev
FN:32,_ZN44EXCEPTIONS_MISSING_OPERANDS_DISJUNCTION_TestD0Ev
FN:32,_ZN44EXCEPTIONS_MISSING_OPERANDS_DISJUNCTION_TestC1Ev
FN:32,_ZN44EXCEPTIONS_MISSING_OPERANDS_DISJUNCTION_Test8TestBodyEv
FN:32,_ZN44EXCEPTIONS_MISSING_OPERANDS_DISJUNCTION_TestD1Ev
FN:32,_ZN44EXCEPTIONS_MISSING_OPERANDS_DISJUNCTION_TestD2Ev
FN:32,__cxx_global_var_init.18
FN:38,_ZN46EXCEPTIONS_MISSING_OPERANDS_CONCATENATION_TestD0Ev
FN:38,_ZN46EXCEPTIONS_MISSING_OPERANDS_CONCATENATION_TestD2Ev
FN:38,__cxx_global_var_init.21
FN:38,_ZN46EXCEPTIONS_MISSING_OPERANDS_CONCATENATION_TestD1Ev
FN:38,_ZN46EXCEPTIONS_MISSING_OPERANDS_CONCATENATION_TestC1Ev
FN:38,_ZN46EXCEPTIONS_MISSING_OPERANDS_CONCATENATION_TestC2Ev
FN:38,_ZN46EXCEPTIONS_MISSING_OPERANDS_CONCATENATION_Test8TestBodyEv
FN:45,main
FNDA:1,__cxx_global_var_init
FNDA:1,_ZN26TEST_FROM_PASHA_FIRST_Test8TestBodyEv
FNDA:1,_ZN26TEST_FROM_PASHA_FIRST_TestD1Ev
FNDA:1,_ZN26TEST_FROM_PASHA_FIRST_TestD0Ev
FNDA:1,_ZN26TEST_FROM_PASHA_FIRST_TestC1Ev
FNDA:1,_ZN26TEST_FROM_PASHA_FIRST_TestC2Ev
FNDA:1,_ZN26TEST_FROM_PASHA_FIRST_TestD2Ev
FNDA:1,__cxx_global_var_init.6
FNDA:1,_ZN27TEST_FROM_PASHA_SECOND_Test8TestBodyEv
FNDA:1,_ZN27TEST_FROM_PASHA_SECOND_TestD1Ev
FNDA:1,_ZN27TEST_FROM_PASHA_SECOND_TestD0Ev
FNDA:1,_ZN27TEST_FROM_PASHA_SECOND_TestC1Ev
FNDA:1,_ZN27TEST_FROM_PASHA_SECOND_TestC2Ev
FNDA:1,_ZN27TEST_FROM_PASHA_SECOND_TestD2Ev
FNDA:1,__cxx_global_var_init.10
FNDA:1,_ZN26EXCEPTIONS_STACK_SIZE_Test8TestBodyEv
FNDA:1,_ZN26EXCEPTIONS_STACK_SIZE_TestD1Ev
FNDA:1,_ZN26EXCEPTIONS_STACK_SIZE_TestD0Ev
FNDA:1,_ZN26EXCEPTIONS_STACK_SIZE_TestC1Ev
FNDA:1,_ZN26EXCEPTIONS_STACK_SIZE_TestC2Ev
FNDA:1,_ZN26EXCEPTIONS_STACK_SIZE_TestD2Ev
FNDA:1,__cxx_global_var_init.15
FNDA:1,_ZN40EXCEPTIONS_MISSING_OPERANDS_CLOSURE_Test8TestBodyEv
FNDA:1,_ZN40EXCEPTIONS_MISSING_OPERANDS_CLOSURE_TestD1Ev
FNDA:1,_ZN40EXCEPTIONS_MISSING_OPERANDS_CLOSURE_TestD0Ev
FNDA:1,_ZN40EXCEPTIONS_MISSING_OPERANDS_CLOSURE_TestC1Ev
FNDA:1,_ZN40EXCEPTIONS_MISSING_OPERANDS_CLOSURE_TestC2Ev
FNDA:1,_ZN40EXCEPTIONS_MISSING_OPERANDS_CLOSURE_TestD2Ev
FNDA:1,__cxx_global_var_init.18
FNDA:1,_ZN44EXCEPTIONS_MISSING_OPERANDS_DISJUNCTION_Test8TestBodyEv
FNDA:1,_ZN44EXCEPTIONS_MISSING_OPERANDS_DISJUNCTION_TestD1Ev
FNDA:1,_ZN44EXCEPTIONS_MISSING_OPERANDS_DISJUNCTION_TestD0Ev
FNDA:1,_ZN44EXCEPTIONS_MISSING_OPERANDS_DISJUNCTION_TestC1Ev
FNDA:1,_ZN44EXCEPTIONS_MISSING_OPERANDS_DISJUNCTION_TestC2Ev
FNDA:1,_ZN44EXCEPTIONS_MISSING_OPERANDS_DISJUNCTION_TestD2Ev
FNDA:1,__cxx_global_var_init.21
FNDA:1,_ZN46EXCEPTIONS_MISSING_OPERANDS_CONCATENATION_Test8TestBodyEv
FNDA:1,_ZN46EXCEPTIONS_MISSING_OPERANDS_CONCATENATION_TestD1Ev
FNDA:1,_ZN46EXCEPTIONS_MISSING_OPERANDS_CONCATENATION_TestD0Ev
FNDA:1,_ZN46EXCEPTIONS_MISSING_OPERANDS_CONCATENATION_TestC1Ev
FNDA:1,_ZN46EXCEPTIONS_MISSING_OPERANDS_CONCATENATION_TestC2Ev
FNDA:1,_ZN46EXCEPTIONS_MISSING_OPERANDS_CONCATENATION_TestD2Ev
FNDA:1,main
FNF:43
FNH:43
BRDA:6,1,0,1
BRDA:6,1,1,0
BRDA:6,2,2,1
BRDA:6,2,3,0
BRDA:6,3,4,1
BRDA:6,3,5,0
BRDA:6,4,6,1
BRDA:6,4,7,0
BRDA:6,5,8,1
BRDA:6,5,9,0
BRDA:6,6,10,1
BRDA:6,6,11,0
BRDA:6,7,12,1
BRDA:6,7,13,0
BRDA:9,0,0,1
BRDA:9,0,1,0
BRDA:9,1,2,1
BRDA:9,1,3,0
BRDA:10,0,0,1
BRDA:10,0,1,0
BRDA:10,1,2,1
BRDA:10,1,3,0
BRDA:10,2,4,1
BRDA:10,2,5,0
BRDA:10,4,6,-
BRDA:10,4,7,-
BRDA:10,5,8,-
BRDA:10,5,9,-
BRDA:10,6,10,-
BRDA:10,6,11,-
BRDA:10,7,12,-
BRDA:10,7,13,-
BRDA:13,1,0,1
BRDA:13,1,1,0
BRDA:13,2,2,1
BRDA:13,2,3,0
BRDA:13,3,4,1
BRDA:13,3,5,0
BRDA:13,4,6,1
BRDA:13,4,7,0
BRDA:13,5,8,1
BRDA:13,5,9,0
BRDA:13,6,10,1
BRDA:13,6,11,0
BRDA:13,7,12,1
BRDA:13,7,13,0
BRDA:16,0,0,1
BRDA:16,0,1,0
BRDA:16,1,2,1
BRDA:16,1,3,0
BRDA:17,0,0,1
BRDA:17,0,1,0
BRDA:17,1,2,1
BRDA:17,1,3,0
BRDA:17,2,4,1
BRDA:17,2,5,0
BRDA:17,4,6,-
BRDA:17,4,7,-
BRDA:17,5,8,-
BRDA:17,5,9,-
BRDA:17,6,10,-
BRDA:17,6,11,-
BRDA:17,7,12,-
BRDA:17,7,13,-
BRDA:20,1,0,1
BRDA:20,1,1,0
BRDA:20,2,2,1
BRDA:20,2,3,0
BRDA:20,3,4,1
BRDA:20,3,5,0
BRDA:20,4,6,1
BRDA:20,4,7,0
BRDA:20,5,8,1
BRDA:20,5,9,0
BRDA:20,6,10,1
BRDA:20,6,11,0
BRDA:20,7,12,1
BRDA:20,7,13,0
BRDA:23,0,0,1
BRDA:23,0,1,0
BRDA:23,1,2,1
BRDA:23,1,3,0
BRDA:23,2,4,1
BRDA:23,2,5,0
BRDA:23,3,6,1
BRDA:23,3,7,0
BRDA:23,4,8,0
BRDA:23,4,9,1
BRDA:23,6,10,0
BRDA:23,6,11,1
BRDA:23,8,12,0
BRDA:23,8,13,1
BRDA:23,13,14,-
BRDA:23,13,15,-
BRDA:23,14,16,-
BRDA:23,14,17,-
BRDA:23,15,18,-
BRDA:23,15,19,-
BRDA:24,4,0,0
BRDA:24,4,1,1
BRDA:24,4,2,0
BRDA:26,1,0,1
BRDA:26,1,1,0
BRDA:26,2,2,1
BRDA:26,2,3,0
BRDA:26,3,4,1
BRDA:26,3,5,0
BRDA:26,4,6,1
BRDA:26,4,7,0
BRDA:26,5,8,1
BRDA:26,5,9,0
BRDA:26,6,10,1
BRDA:26,6,11,0
BRDA:26,7,12,1
BRDA:26,7,13,0
BRDA:29,0,0,1
BRDA:29,0,1,0
BRDA:29,1,2,1
BRDA:29,1,3,0
BRDA:29,2,4,1
BRDA:29,2,5,0
BRDA:29,3,6,1
BRDA:29,3,7,0
BRDA:29,4,8,0
BRDA:29,4,9,1
BRDA:29,6,10,0
BRDA:29,6,11,1
BRDA:29,8,12,0
BRDA:29,8,13,1
BRDA:29,13,14,-
BRDA:29,13,15,-
BRDA:29,14,16,-
BRDA:29,14,17,-
BRDA:29,15,18,-
BRDA:29,15,19,-
BRDA:30,4,0,0
BRDA:30,4,1,1
BRDA:30,4,2,0
BRDA:32,1,0,1
BRDA:32,1,1,0
BRDA:32,2,2,1
BRDA:32,2,3,0
BRDA:32,3,4,1
BRDA:32,3,5,0
BRDA:32,4,6,1
BRDA:32,4,7,0
BRDA:32,5,8,1
BRDA:32,5,9,0
BRDA:32,6,10,1
BRDA:32,6,11,0
BRDA:32,7,12,1
BRDA:32,7,13,0
BRDA:35,0,0,1
BRDA:35,0,1,0
BRDA:35,1,2,1
BRDA:35,1,3,0
BRDA:35,2,4,1
BRDA:35,2,5,0
BRDA:35,3,6,1
BRDA:35,3,7,0
BRDA:35,4,8,0
BRDA:35,4,9,1
BRDA:35,6,10,0
BRDA:35,6,11,1
BRDA:35,8,12,0
BRDA:35,8,13,1
BRDA:35,13,14,-
BRDA:35,13,15,-
BRDA:35,14,16,-
BRDA:35,14,17,-
BRDA:35,15,18,-
BRDA:35,15,19,-
BRDA:36,4,0,0
BRDA:36,4,1,1
BRDA:36,4,2,0
BRDA:38,1,0,1
BRDA:38,1,1,0
BRDA:38,2,2,1
BRDA:38,2,3,0
BRDA:38,3,4,1
BRDA:38,3,5,0
BRDA:38,4,6,1
BRDA:38,4,7,0
BRDA:38,5,8,1
BRDA:38,5,9,0
BRDA:38,6,10,1
BRDA:38,6,11,0
BRDA:38,7,12,1
BRDA:38,7,13,0
BRDA:41,0,0,1
BRDA:41,0,1,0
BRDA:41,1,2,1
BRDA:41,1,3,0
BRDA:41,2,4,1
BRDA:41,2,5,0
BRDA:41,3,6,1
BRDA:41,3,7,0
BRDA:41,4,8,0
BRDA:41,4,9,1
BRDA:41,6,10,0
BRDA:41,6,11,1
BRDA:41,8,12,0
BRDA:41,8,13,1
BRDA:41,13,14,-
BRDA:41,13,15,-
BRDA:41,14,16,-
BRDA:41,14,17,-
BRDA:41,15,18,-
BRDA:41,15,19,-
BRDA:42,4,0,0
BRDA:42,4,1,1
BRDA:42,4,2,0
BRF:212
BRH:84
DA:6,7
DA:7,1
DA:9,1
DA:10,1
DA:11,1
DA:13,7
DA:14,1
DA:16,1
DA:17,1
DA:18,1
DA:20,7
DA:21,1
DA:23,2
DA:24,2
DA:26,7
DA:27,1
DA:29,2
DA:30,2
DA:32,7
DA:33,1
DA:35,2
DA:36,2
DA:38,7
DA:39,1
DA:41,2
DA:42,2
DA:45,1
DA:46,1
DA:47,1
LF:29
LH:29
end_of_record
SF:/usr/local/include/gtest/gtest-message.h
FN:90,_ZN7testing7MessageD1Ev
FN:90,_ZN7testing7MessageD2Ev
FNDA:55,_ZN7testing7MessageD1Ev
FNDA:55,_ZN7testing7MessageD2Ev
FNF:2
FNH:2
DA:90,110
LF:1
LH:1
end_of_record
SF:/usr/local/include/gtest/gtest-printers.h
FN:259,_ZN16testing_internal26DefaultPrintNonContainerToIiEEvRKT_PNSt3__113basic_ostreamIcNS4_11char_traitsIcEEEE
FN:259,_ZN16testing_internal26DefaultPrintNonContainerToImEEvRKT_PNSt3__113basic_ostreamIcNS4_11char_traitsIcEEEE
FN:312,_ZN7testing8internal19FormatForComparisonImiE6FormatERKm
FN:312,_ZN7testing8internal19FormatForComparisonIimE6FormatERKi
FN:386,_ZN7testing8internal33FormatForComparisonFailureMessageImiEENSt3__112basic_stringIcNS2_11char_traitsIcEENS2_9allocatorIcEEEERKT_RKT0_
FN:386,_ZN7testing8internal33FormatForComparisonFailureMessageIimEENSt3__112basic_stringIcNS2_11char_traitsIcEENS2_9allocatorIcEEEERKT_RKT0_
FN:475,_ZN7testing8internal14DefaultPrintToIiEEvNS0_15WrapPrinterTypeILNS0_18DefaultPrinterTypeE3EEERKT_PNSt3__113basic_ostreamIcNS8_11char_traitsIcEEEE
FN:475,_ZN7testing8internal14DefaultPrintToImEEvNS0_15WrapPrinterTypeILNS0_18DefaultPrinterTypeE3EEERKT_PNSt3__113basic_ostreamIcNS8_11char_traitsIcEEEE
FN:492,_ZN7testing8internal7PrintToIiEEvRKT_PNSt3__113basic_ostreamIcNS5_11char_traitsIcEEEE
FN:492,_ZN7testing8internal7PrintToImEEvRKT_PNSt3__113basic_ostreamIcNS5_11char_traitsIcEEEE
FN:693,_ZN7testing8internal16UniversalPrinterIiE5PrintERKiPNSt3__113basic_ostreamIcNS5_11char_traitsIcEEEE
FN:693,_ZN7testing8internal16UniversalPrinterImE5PrintERKmPNSt3__113basic_ostreamIcNS5_11char_traitsIcEEEE
FN:819,_ZN7testing8internal21UniversalTersePrinterImE5PrintERKmPNSt3__113basic_ostreamIcNS5_11char_traitsIcEEEE
FN:819,_ZN7testing8internal21UniversalTersePrinterIiE5PrintERKiPNSt3__113basic_ostreamIcNS5_11char_traitsIcEEEE
FN:888,_ZN7testing8internal14UniversalPrintImEEvRKT_PNSt3__113basic_ostreamIcNS5_11char_traitsIcEEEE
FN:888,_ZN7testing8internal14UniversalPrintIiEEvRKT_PNSt3__113basic_ostreamIcNS5_11char_traitsIcEEEE
FN:938,_ZN7testing13PrintToStringImEENSt3__112basic_stringIcNS1_11char_traitsIcEENS1_9allocatorIcEEEERKT_
FN:938,_ZN7testing13PrintToStringIiEENSt3__112basic_stringIcNS1_11char_traitsIcEENS1_9allocatorIcEEEERKT_
FNDA:0,_ZN16testing_internal26DefaultPrintNonContainerToImEEvRKT_PNSt3__113basic_ostreamIcNS4_11char_traitsIcEEEE
FNDA:0,_ZN16testing_internal26DefaultPrintNonContainerToIiEEvRKT_PNSt3__113basic_ostreamIcNS4_11char_traitsIcEEEE
FNDA:0,_ZN7testing8internal19FormatForComparisonImiE6FormatERKm
FNDA:0,_ZN7testing8internal19FormatForComparisonIimE6FormatERKi
FNDA:0,_ZN7testing8internal33FormatForComparisonFailureMessageImiEENSt3__112basic_stringIcNS2_11char_traitsIcEENS2_9allocatorIcEEEERKT_RKT0_
FNDA:0,_ZN7testing8internal33FormatForComparisonFailureMessageIimEENSt3__112basic_stringIcNS2_11char_traitsIcEENS2_9allocatorIcEEEERKT_RKT0_
FNDA:0,_ZN7testing8internal14DefaultPrintToImEEvNS0_15WrapPrinterTypeILNS0_18DefaultPrinterTypeE3EEERKT_PNSt3__113basic_ostreamIcNS8_11char_traitsIcEEEE
FNDA:0,_ZN7testing8internal14DefaultPrintToIiEEvNS0_15WrapPrinterTypeILNS0_18DefaultPrinterTypeE3EEERKT_PNSt3__113basic_ostreamIcNS8_11char_traitsIcEEEE
FNDA:0,_ZN7testing8internal7PrintToImEEvRKT_PNSt3__113basic_ostreamIcNS5_11char_traitsIcEEEE
FNDA:0,_ZN7testing8internal7PrintToIiEEvRKT_PNSt3__113basic_ostreamIcNS5_11char_traitsIcEEEE
FNDA:0,_ZN7testing8internal16UniversalPrinterImE5PrintERKmPNSt3__113basic_ostreamIcNS5_11char_traitsIcEEEE
FNDA:0,_ZN7testing8internal16UniversalPrinterIiE5PrintERKiPNSt3__113basic_ostreamIcNS5_11char_traitsIcEEEE
FNDA:0,_ZN7testing8internal21UniversalTersePrinterImE5PrintERKmPNSt3__113basic_ostreamIcNS5_11char_traitsIcEEEE
FNDA:0,_ZN7testing8internal21UniversalTersePrinterIiE5PrintERKiPNSt3__113basic_ostreamIcNS5_11char_traitsIcEEEE
FNDA:0,_ZN7testing8internal14UniversalPrintImEEvRKT_PNSt3__113basic_ostreamIcNS5_11char_traitsIcEEEE
FNDA:0,_ZN7testing8internal14UniversalPrintIiEEvRKT_PNSt3__113basic_ostreamIcNS5_11char_traitsIcEEEE
FNDA:0,_ZN7testing13PrintToStringImEENSt3__112basic_stringIcNS1_11char_traitsIcEENS1_9allocatorIcEEEERKT_
FNDA:0,_ZN7testing13PrintToStringIiEENSt3__112basic_stringIcNS1_11char_traitsIcEENS1_9allocatorIcEEEERKT_
FNF:18
FNH:0
BRDA:940,0,0,-
BRDA:940,0,1,-
BRDA:940,2,2,-
BRDA:940,2,3,-
BRDA:940,3,4,-
BRDA:940,3,5,-
BRDA:940,5,6,-
BRDA:940,5,7,-
BRDA:941,0,0,-
BRDA:941,0,1,-
BRDA:941,1,2,-
BRDA:941,1,3,-
BRF:12
BRH:0
DA:259,0
DA:286,0
DA:287,0
DA:312,0
DA:313,0
DA:386,0
DA:388,0
DA:475,0
DA:477,0
DA:478,0
DA:492,0
DA:512,0
DA:522,0
DA:523,0
DA:693,0
DA:702,0
DA:703,0
DA:819,0
DA:820,0
DA:821,0
DA:888,0
DA:892,0
DA:893,0
DA:938,0
DA:939,0
DA:940,0
DA:941,0
DA:942,0
LF:28
LH:0
end_of_record
SF:/usr/local/include/gtest/gtest.h
FN:290,_ZN7testing15AssertionResultD2Ev
FN:290,_ZN7testing15AssertionResultD1Ev
FN:327,_ZNK7testing15AssertionResultcvbEv
FN:336,_ZNK7testing15AssertionResult7messageEv
FN:340,_ZNK7testing15AssertionResult15failure_messageEv
FN:430,_ZN7testing4Test14SetUpTestSuiteEv
FN:438,_ZN7testing4Test17TearDownTestSuiteEv
FN:442,_ZN7testing4Test16TearDownTestCaseEv
FN:443,_ZN7testing4Test13SetUpTestCaseEv
FN:524,_ZN7testing4Test5SetupEv
FN:1499,_ZN7testing8internal18CmpHelperEQFailureImiEENS_15AssertionResultEPKcS4_RKT_RKT0_
FN:1518,_ZN7testing8internal11CmpHelperEQImiEENS_15AssertionResultEPKcS4_RKT_RKT0_
FN:1546,_ZN7testing8internal8EqHelper7CompareImiLPv0EEENS_15AssertionResultEPKcS6_RKT_RKT0_
FN:2468,_Z13RUN_ALL_TESTSv
FNDA:2,_ZN7testing15AssertionResultD1Ev
FNDA:2,_ZN7testing15AssertionResultD2Ev
FNDA:2,_ZNK7testing15AssertionResultcvbEv
FNDA:0,_ZNK7testing15AssertionResult7messageEv
FNDA:0,_ZNK7testing15AssertionResult15failure_messageEv
FNDA:0,_ZN7testing4Test14SetUpTestSuiteEv
FNDA:0,_ZN7testing4Test17TearDownTestSuiteEv
FNDA:0,_ZN7testing4Test16TearDownTestCaseEv
FNDA:0,_ZN7testing4Test13SetUpTestCaseEv
FNDA:0,_ZN7testing4Test5SetupEv
FNDA:0,_ZN7testing8internal18CmpHelperEQFailureImiEENS_15AssertionResultEPKcS4_RKT_RKT0_
FNDA:2,_ZN7testing8internal11CmpHelperEQImiEENS_15AssertionResultEPKcS4_RKT_RKT0_
FNDA:2,_ZN7testing8internal8EqHelper7CompareImiLPv0EEENS_15AssertionResultEPKcS6_RKT_RKT0_
FNDA:1,_Z13RUN_ALL_TESTSv
FNF:14
FNH:6
BRDA:337,0,0,-
BRDA:337,0,1,-
BRDA:1502,0,0,-
BRDA:1502,0,1,-
BRDA:1505,0,0,-
BRDA:1505,0,1,-
BRDA:1522,0,0,2
BRDA:1522,0,1,0
BRF:8
BRH:1
DA:290,4
DA:327,2
DA:336,0
DA:337,0
DA:340,0
DA:430,0
DA:438,0
DA:442,0
DA:443,0
DA:524,0
DA:1499,0
DA:1502,0
DA:1503,0
DA:1504,0
DA:1505,0
DA:1507,0
DA:1518,2
DA:1522,2
DA:1523,2
DA:1526,0
DA:1527,2
DA:1546,2
DA:1549,2
DA:2468,1
DA:2469,1
LF:25
LH:10
end_of_record
SF:/usr/local/include/gtest/internal/gtest-internal.h
FN:443,_ZN7testing8internal15TestFactoryBaseD2Ev
FN:443,_ZN7testing8internal15TestFactoryBaseD1Ev
FN:443,_ZN7testing8internal15TestFactoryBaseD0Ev
FN:450,_ZN7testing8internal15TestFactoryBaseC2Ev
FN:459,_ZN7testing8internal15TestFactoryImplI40EXCEPTIONS_MISSING_OPERANDS_CLOSURE_TestEC2Ev
FN:459,_ZN7testing8internal15TestFactoryImplI44EXCEPTIONS_MISSING_OPERANDS_DISJUNCTION_TestEC2Ev
FN:459,_ZN7testing8internal15TestFactoryImplI27TEST_FROM_PASHA_SECOND_TestEC1Ev
FN:459,_ZN7testing8internal15TestFactoryImplI40EXCEPTIONS_MISSING_OPERANDS_CLOSURE_TestED2Ev
FN:459,_ZN7testing8internal15TestFactoryImplI40EXCEPTIONS_MISSING_OPERANDS_CLOSURE_TestED0Ev
FN:459,_ZN7testing8internal15TestFactoryImplI27TEST_FROM_PASHA_SECOND_TestED0Ev
FN:459,_ZN7testing8internal15TestFactoryImplI26TEST_FROM_PASHA_FIRST_TestEC2Ev
FN:459,_ZN7testing8internal15TestFactoryImplI46EXCEPTIONS_MISSING_OPERANDS_CONCATENATION_TestEC1Ev
FN:459,_ZN7testing8internal15TestFactoryImplI40EXCEPTIONS_MISSING_OPERANDS_CLOSURE_TestED1Ev
FN:459,_ZN7testing8internal15TestFactoryImplI44EXCEPTIONS_MISSING_OPERANDS_DISJUNCTION_TestED2Ev
FN:459,_ZN7testing8internal15TestFactoryImplI44EXCEPTIONS_MISSING_OPERANDS_DISJUNCTION_TestED0Ev
FN:459,_ZN7testing8internal15TestFactoryImplI27TEST_FROM_PASHA_SECOND_TestED2Ev
FN:459,_ZN7testing8internal15TestFactoryImplI46EXCEPTIONS_MISSING_OPERANDS_CONCATENATION_TestED0Ev
FN:459,_ZN7testing8internal15TestFactoryImplI26EXCEPTIONS_STACK_SIZE_TestEC2Ev
FN:459,_ZN7testing8internal15TestFactoryImplI27TEST_FROM_PASHA_SECOND_TestEC2Ev
FN:459,_ZN7testing8internal15TestFactoryImplI26EXCEPTIONS_STACK_SIZE_TestED2Ev
FN:459,_ZN7testing8internal15TestFactoryImplI26TEST_FROM_PASHA_FIRST_TestED1Ev
FN:459,_ZN7testing8internal15TestFactoryImplI26EXCEPTIONS_STACK_SIZE_TestED1Ev
FN:459,_ZN7testing8internal15TestFactoryImplI26EXCEPTIONS_STACK_SIZE_TestEC1Ev
FN:459,_ZN7testing8internal15TestFactoryImplI27TEST_FROM_PASHA_SECOND_TestED1Ev
FN:459,_ZN7testing8internal15TestFactoryImplI26EXCEPTIONS_STACK_SIZE_TestED0Ev
FN:459,_ZN7testing8internal15TestFactoryImplI44EXCEPTIONS_MISSING_OPERANDS_DISJUNCTION_TestED1Ev
FN:459,_ZN7testing8internal15TestFactoryImplI46EXCEPTIONS_MISSING_OPERANDS_CONCATENATION_TestED1Ev
FN:459,_ZN7testing8internal15TestFactoryImplI26TEST_FROM_PASHA_FIRST_TestEC1Ev
FN:459,_ZN7testing8internal15TestFactoryImplI26TEST_FROM_PASHA_FIRST_TestED2Ev
FN:459,_ZN7testing8internal15TestFactoryImplI40EXCEPTIONS_MISSING_OPERANDS_CLOSURE_TestEC1Ev
FN:459,_ZN7testing8internal15TestFactoryImplI26TEST_FROM_PASHA_FIRST_TestED0Ev
FN:459,_ZN7testing8internal15TestFactoryImplI46EXCEPTIONS_MISSING_OPERANDS_CONCATENATION_TestEC2Ev
FN:459,_ZN7testing8internal15TestFactoryImplI46EXCEPTIONS_MISSING_OPERANDS_CONCATENATION_TestED2Ev
FN:459,_ZN7testing8internal15TestFactoryImplI44EXCEPTIONS_MISSING_OPERANDS_DISJUNCTION_TestEC1Ev
FN:461,_ZN7testing8internal15TestFactoryImplI40EXCEPTIONS_MISSING_OPERANDS_CLOSURE_TestE10CreateTestEv
FN:461,_ZN7testing8internal15TestFactoryImplI26TEST_FROM_PASHA_FIRST_TestE10CreateTestEv
FN:461,_ZN7testing8internal15TestFactoryImplI46EXCEPTIONS_MISSING_OPERANDS_CONCATENATION_TestE10CreateTestEv
FN:461,_ZN7testing8internal15TestFactoryImplI44EXCEPTIONS_MISSING_OPERANDS_DISJUNCTION_TestE10CreateTestEv
FN:461,_ZN7testing8internal15TestFactoryImplI27TEST_FROM_PASHA_SECOND_TestE10CreateTestEv
FN:461,_ZN7testing8internal15TestFactoryImplI26EXCEPTIONS_STACK_SIZE_TestE10CreateTestEv
FN:481,_ZN7testing8internal12CodeLocationD2Ev
FN:481,_ZN7testing8internal12CodeLocationD1Ev
FN:482,_ZN7testing8internal12CodeLocationC1ERKNSt3__112basic_stringIcNS2_11char_traitsIcEENS2_9allocatorIcEEEEi
FN:482,_ZN7testing8internal12CodeLocationC2ERKNSt3__112basic_stringIcNS2_11char_traitsIcEENS2_9allocatorIcEEEEi
FN:495,_ZN7testing8internal19GetNotDefaultOrNullEPFvvES2_
FN:510,_ZN7testing8internal16SuiteApiResolverINS_4TestEE19GetSetUpCaseOrSuiteEv
FN:523,_ZN7testing8internal16SuiteApiResolverINS_4TestEE22GetTearDownCaseOrSuiteEv
FNDA:0,_ZN7testing8internal15TestFactoryBaseD1Ev
FNDA:0,_ZN7testing8internal15TestFactoryBaseD0Ev
FNDA:6,_ZN7testing8internal15TestFactoryBaseD2Ev
FNDA:6,_ZN7testing8internal15TestFactoryBaseC2Ev
FNDA:1,_ZN7testing8internal15TestFactoryImplI26TEST_FROM_PASHA_FIRST_TestEC1Ev
FNDA:1,_ZN7testing8internal15TestFactoryImplI27TEST_FROM_PASHA_SECOND_TestEC1Ev
FNDA:1,_ZN7testing8internal15TestFactoryImplI26EXCEPTIONS_STACK_SIZE_TestEC1Ev
FNDA:1,_ZN7testing8internal15TestFactoryImplI40EXCEPTIONS_MISSING_OPERANDS_CLOSURE_TestEC1Ev
FNDA:1,_ZN7testing8internal15TestFactoryImplI44EXCEPTIONS_MISSING_OPERANDS_DISJUNCTION_TestEC1Ev
FNDA:1,_ZN7testing8internal15TestFactoryImplI46EXCEPTIONS_MISSING_OPERANDS_CONCATENATION_TestEC1Ev
FNDA:1,_ZN7testing8internal15TestFactoryImplI26TEST_FROM_PASHA_FIRST_TestEC2Ev
FNDA:1,_ZN7testing8internal15TestFactoryImplI26TEST_FROM_PASHA_FIRST_TestED1Ev
FNDA:1,_ZN7testing8internal15TestFactoryImplI26TEST_FROM_PASHA_FIRST_TestED0Ev
FNDA:1,_ZN7testing8internal15TestFactoryImplI26TEST_FROM_PASHA_FIRST_TestED2Ev
FNDA:1,_ZN7testing8internal15TestFactoryImplI27TEST_FROM_PASHA_SECOND_TestEC2Ev
FNDA:1,_ZN7testing8internal15TestFactoryImplI27TEST_FROM_PASHA_SECOND_TestED1Ev
FNDA:1,_ZN7testing8internal15TestFactoryImplI27TEST_FROM_PASHA_SECOND_TestED0Ev
FNDA:1,_ZN7testing8internal15TestFactoryImplI27TEST_FROM_PASHA_SECOND_TestED2Ev
FNDA:1,_ZN7testing8internal15TestFactoryImplI26EXCEPTIONS_STACK_SIZE_TestEC2Ev
FNDA:1,_ZN7testing8internal15TestFactoryImplI26EXCEPTIONS_STACK_SIZE_TestED1Ev
FNDA:1,_ZN7testing8internal15TestFactoryImplI26EXCEPTIONS_STACK_SIZE_TestED0Ev
FNDA:1,_ZN7testing8internal15TestFactoryImplI26EXCEPTIONS_STACK_SIZE_TestED2Ev
FNDA:1,_ZN7testing8internal15TestFactoryImplI40EXCEPTIONS_MISSING_OPERANDS_CLOSURE_TestEC2Ev
FNDA:1,_ZN7testing8internal15TestFactoryImplI40EXCEPTIONS_MISSING_OPERANDS_CLOSURE_TestED1Ev
FNDA:1,_ZN7testing8internal15TestFactoryImplI40EXCEPTIONS_MISSING_OPERANDS_CLOSURE_TestED0Ev
FNDA:1,_ZN7testing8internal15TestFactoryImplI40EXCEPTIONS_MISSING_OPERANDS_CLOSURE_TestED2Ev
FNDA:1,_ZN7testing8internal15TestFactoryImplI44EXCEPTIONS_MISSING_OPERANDS_DISJUNCTION_TestEC2Ev
FNDA:1,_ZN7testing8internal15TestFactoryImplI44EXCEPTIONS_MISSING_OPERANDS_DISJUNCTION_TestED1Ev
FNDA:1,_ZN7testing8internal15TestFactoryImplI44EXCEPTIONS_MISSING_OPERANDS_DISJUNCTION_TestED0Ev
FNDA:1,_ZN7testing8internal15TestFactoryImplI44EXCEPTIONS_MISSING_OPERANDS_DISJUNCTION_TestED2Ev
FNDA:1,_ZN7testing8internal15TestFactoryImplI46EXCEPTIONS_MISSING_OPERANDS_CONCATENATION_TestEC2Ev
FNDA:1,_ZN7testing8internal15TestFactoryImplI46EXCEPTIONS_MISSING_OPERANDS_CONCATENATION_TestED1Ev
FNDA:1,_ZN7testing8internal15TestFactoryImplI46EXCEPTIONS_MISSING_OPERANDS_CONCATENATION_TestED0Ev
FNDA:1,_ZN7testing8internal15TestFactoryImplI46EXCEPTIONS_MISSING_OPERANDS_CONCATENATION_TestED2Ev
FNDA:1,_ZN7testing8internal15TestFactoryImplI26TEST_FROM_PASHA_FIRST_TestE10CreateTestEv
FNDA:1,_ZN7testing8internal15TestFactoryImplI27TEST_FROM_PASHA_SECOND_TestE10CreateTestEv
FNDA:1,_ZN7testing8internal15TestFactoryImplI26EXCEPTIONS_STACK_SIZE_TestE10CreateTestEv
FNDA:1,_ZN7testing8internal15TestFactoryImplI40EXCEPTIONS_MISSING_OPERANDS_CLOSURE_TestE10CreateTestEv
FNDA:1,_ZN7testing8internal15TestFactoryImplI44EXCEPTIONS_MISSING_OPERANDS_DISJUNCTION_TestE10CreateTestEv
FNDA:1,_ZN7testing8internal15TestFactoryImplI46EXCEPTIONS_MISSING_OPERANDS_CONCATENATION_TestE10CreateTestEv
FNDA:18,_ZN7testing8internal12CodeLocationD1Ev
FNDA:18,_ZN7testing8internal12CodeLocationD2Ev
FNDA:6,_ZN7testing8internal12CodeLocationC1ERKNSt3__112basic_stringIcNS2_11char_traitsIcEENS2_9allocatorIcEEEEi
FNDA:6,_ZN7testing8internal12CodeLocationC2ERKNSt3__112basic_stringIcNS2_11char_traitsIcEENS2_9allocatorIcEEEEi
FNDA:24,_ZN7testing8internal19GetNotDefaultOrNullEPFvvES2_
FNDA:6,_ZN7testing8internal16SuiteApiResolverINS_4TestEE19GetSetUpCaseOrSuiteEv
FNDA:6,_ZN7testing8internal16SuiteApiResolverINS_4TestEE22GetTearDownCaseOrSuiteEv
FNF:47
FNH:45
BRDA:461,1,0,1
BRDA:461,1,1,0
BRDA:461,6,2,1
BRDA:461,6,3,0
BRDA:461,11,4,1
BRDA:461,11,5,0
BRDA:461,16,6,1
BRDA:461,16,7,0
BRDA:461,21,8,1
BRDA:461,21,9,0
BRDA:461,26,10,1
BRDA:461,26,11,0
BRDA:497,0,0,24
BRDA:497,0,1,0
BRDA:516,0,0,0
BRDA:516,0,1,6
BRDA:516,2,2,6
BRDA:516,2,3,0
BRDA:516,4,4,-
BRDA:516,4,5,-
BRDA:516,5,6,-
BRDA:516,5,7,-
BRDA:517,0,0,-
BRDA:517,0,1,-
BRDA:520,0,0,0
BRDA:520,0,1,6
BRDA:529,0,0,0
BRDA:529,0,1,6
BRDA:529,2,2,6
BRDA:529,2,3,0
BRDA:529,4,4,-
BRDA:529,4,5,-
BRDA:529,5,6,-
BRDA:529,5,7,-
BRDA:530,0,0,-
BRDA:530,0,1,-
BRDA:533,0,0,0
BRDA:533,0,1,6
BRF:38
BRH:13
DA:443,6
DA:450,6
DA:459,30
DA:461,6
DA:481,36
DA:482,12
DA:483,12
DA:495,24
DA:497,24
DA:510,6
DA:511,6
DA:512,6
DA:513,6
DA:514,6
DA:516,6
DA:517,0
DA:520,6
DA:521,0
DA:523,6
DA:524,6
DA:525,6
DA:526,6
DA:527,6
DA:529,6
DA:530,0
DA:533,6
DA:534,0
LF:27
LH:23
end_of_record
SF:/usr/local/include/gtest/internal/gtest-port.h
FN:1012,_ZN7testing8internal8GTestLog9GetStreamEv
FNDA:0,_ZN7testing8internal8GTestLog9GetStreamEv
FNF:1
FNH:0
DA:1012,0
LF:1
LH:0
end_of_record
